(dp0
S'sample'
p1
(dp2
S'gtag'
p3
NsS'isdata'
p4
I00
sS'dataset'
p5
S'/MuonEG/Run2016B-03Feb2017_ver2-v2/CMS3'
p6
sS'pset'
p7
S''
p8
sS'finaldir'
p9
g8
sS'ijob_to_nevents'
p10
(dp11
sS'basedir'
p12
S'/home/users/dpgilber/MT2AnalysisNebraskaCMS3/babymaker/batchsubmit/'
p13
sS'kfact'
p14
NsS'imerged_to_ijob'
p15
(dp16
sS'crab'
p17
(dp18
S'resubmissions'
p19
I0
sS'datetime'
p20
NsS'jobs_left'
p21
(lp22
sS'requestname'
p23
S'MuonEG_Run2016B-03Feb2017_ver2-v2'
p24
sS'taskdir'
p25
S'babies/babies_MuonEG_Run2016B-03Feb2017_ver2-v2_2016_El50noID'
p26
sS'outputdir'
p27
NsS'jobs_left_tail'
p28
(lp29
ssS'shortname'
p30
g24
sS'xsec'
p31
NsS'type'
p32
S'BABY'
p33
sS'checks'
p34
(dp35
sS'sparms'
p36
(lp37
sS'status'
p38
S'condor'
p39
sS'ijob_to_miniaod'
p40
(dp41
sS'cms3tag'
p42
VCMS3_V08-00-18
p43
sS'specialdir'
p44
g8
sS'user'
p45
S'dpgilber'
p46
sS'efact'
p47
NsS'baby'
p48
(dp49
S'condor_done'
p50
I134
sS'outputdir_pattern'
p51
S'/hadoop/cms/store/user/dpgilber/AutoTwopler_babies/${ANALYSIS}_${BABY_TAG}/${SHORTNAME}/'
p52
sS'user_executable'
p53
S'/home/users/dpgilber/MT2AnalysisNebraskaCMS3/babymaker/batchsubmit/job_input/wrapper_auto.sh'
p54
sS'dataset'
p55
g6
sS'scramarch'
p56
S'slc6_amd64_gcc530'
p57
sS'sweepRoot_script'
p58
S'/home/users/dpgilber/MT2AnalysisNebraskaCMS3/babymaker/batchsubmit//babies/sweepRoot.sh'
p59
sS'total'
p60
I272
sS'finaldir'
p61
S'/hadoop/cms/store/user/dpgilber/AutoTwopler_babies/MT2_2016_El50noID/MuonEG_Run2016B-03Feb2017_ver2-v2/'
p62
sS'nevents'
p63
I-1
sS'output_names_nosplit'
p64
S'output.root,skim.root,skim_rphi.root'
p65
sS'imerged'
p66
(lp67
I1
aI2
aI3
aI4
aI5
aI6
aI7
aI8
aI9
aI10
aI11
aI12
aI13
aI14
aI15
aI16
aI17
aI18
aI19
aI20
aI21
aI22
aI23
aI24
aI25
aI26
aI27
aI28
aI29
aI30
aI31
aI32
aI33
aI34
aI35
aI36
aI37
aI38
aI39
aI40
aI41
aI42
aI43
aI44
aI45
aI46
aI47
aI48
aI49
aI50
aI51
aI52
aI53
aI54
aI55
aI56
aI57
aI58
aI59
aI60
aI61
aI62
aI63
aI64
aI65
aI66
aI67
aI68
aI69
aI70
aI71
aI72
aI73
aI74
aI75
aI76
aI77
aI78
aI79
aI80
aI81
aI82
aI83
aI84
aI85
aI86
aI87
aI88
aI89
aI90
aI91
aI92
aI93
aI94
aI95
aI96
aI97
aI98
aI99
aI100
aI101
aI102
aI103
aI104
aI105
aI106
aI107
aI108
aI109
aI110
aI111
aI112
aI113
aI114
aI115
aI116
aI117
aI118
aI119
aI120
aI121
aI122
aI123
aI124
aI125
aI126
aI127
aI128
aI129
aI130
aI131
aI132
aI133
aI134
aI135
aI136
aI137
aI138
aI139
aI140
aI141
aI142
aI143
aI144
aI145
aI146
aI147
aI148
aI149
aI150
aI151
aI152
aI153
aI154
aI155
aI156
aI157
aI158
aI159
aI160
aI161
aI162
aI163
aI164
aI165
aI166
aI167
aI168
aI169
aI170
aI171
aI172
aI173
aI174
aI175
aI176
aI177
aI178
aI179
aI180
aI181
aI182
aI183
aI184
aI185
aI186
aI187
aI188
aI189
aI190
aI191
aI192
aI193
aI194
aI195
aI196
aI197
aI198
aI199
aI200
aI201
aI202
aI203
aI204
aI205
aI206
aI207
aI208
aI209
aI210
aI211
aI212
aI213
aI214
aI215
aI216
aI217
aI218
aI219
aI220
aI221
aI222
aI223
aI224
aI225
aI226
aI227
aI228
aI229
aI230
aI231
aI232
aI233
aI234
aI235
aI236
aI237
aI238
aI239
aI240
aI241
aI242
aI243
aI244
aI245
aI246
aI247
aI248
aI249
aI250
aI251
aI252
aI253
aI254
aI255
aI256
aI257
aI258
aI259
aI260
aI261
aI262
aI263
aI264
aI265
aI266
aI267
aI268
aI269
aI270
aI271
aI272
asS'sweepRooted'
p68
I134
sS'exe_args'
p69
(lp70
g8
asS'user_package'
p71
S'/home/users/dpgilber/MT2AnalysisNebraskaCMS3/babymaker/batchsubmit/job_input/package.tar.gz'
p72
sS'exe_args_nosplit'
p73
g8
sS'running'
p74
I0
sS'output_names'
p75
(lp76
S'output.root'
p77
aS'skim.root'
p78
aS'skim_rphi.root'
p79
asS'package'
p80
S'/home/users/dpgilber/MT2AnalysisNebraskaCMS3/babymaker/batchsubmit//babies/package.tar.gz'
p81
sS'cmsswver'
p82
S'CMSSW_8_0_21'
p83
sS'have_set_inputs'
p84
I01
sS'analysis'
p85
S'MT2'
p86
sS'merging_script'
p87
S'/home/users/dpgilber/MT2AnalysisNebraskaCMS3/babymaker/batchsubmit//babies/merging_script.sh'
p88
sS'idle'
p89
I272
sS'baby_tag'
p90
S'2016_El50noID'
p91
sS'imerged_swept'
p92
(lp93
I82
aI30
aI8
aI1
aI70
aI38
aI53
aI62
aI2
aI3
aI148
aI5
aI72
aI35
aI91
aI131
aI108
aI83
aI4
aI204
aI127
aI233
aI31
aI137
aI122
aI33
aI187
aI165
aI221
aI219
aI17
aI157
aI210
aI208
aI271
aI205
aI135
aI6
aI256
aI184
aI22
aI225
aI259
aI251
aI7
aI240
aI74
aI270
aI9
aI123
aI255
aI126
aI134
aI215
aI226
aI248
aI106
aI244
aI136
aI73
aI116
aI254
aI192
aI186
aI114
aI13
aI118
aI34
aI59
aI242
aI14
aI247
aI230
aI198
aI167
aI110
aI161
aI152
aI181
aI213
aI45
aI32
aI129
aI75
aI228
aI37
aI10
aI252
aI191
aI52
aI175
aI66
aI12
aI145
aI18
aI243
aI245
aI156
aI63
aI212
aI169
aI171
aI19
aI84
aI87
aI89
aI147
aI170
aI199
aI39
aI25
aI203
aI120
aI92
aI46
aI16
aI11
aI258
aI23
aI26
aI261
aI231
aI27
aI36
aI29
aI211
aI86
aI216
aI97
aI28
aI174
aI20
aI15
aI227
asS'input_filenames'
p94
(lp95
V/nfs-7/userdata/dataTuple/kludge/Run2016B_MuonEG_MINIAOD_03Feb2017_ver2-v2/merged/V08-00-18/merged_ntuple_1.root
p96
aV/nfs-7/userdata/dataTuple/kludge/Run2016B_MuonEG_MINIAOD_03Feb2017_ver2-v2/merged/V08-00-18/merged_ntuple_2.root
p97
aV/nfs-7/userdata/dataTuple/kludge/Run2016B_MuonEG_MINIAOD_03Feb2017_ver2-v2/merged/V08-00-18/merged_ntuple_3.root
p98
aV/nfs-7/userdata/dataTuple/kludge/Run2016B_MuonEG_MINIAOD_03Feb2017_ver2-v2/merged/V08-00-18/merged_ntuple_4.root
p99
aV/nfs-7/userdata/dataTuple/kludge/Run2016B_MuonEG_MINIAOD_03Feb2017_ver2-v2/merged/V08-00-18/merged_ntuple_5.root
p100
aV/nfs-7/userdata/dataTuple/kludge/Run2016B_MuonEG_MINIAOD_03Feb2017_ver2-v2/merged/V08-00-18/merged_ntuple_6.root
p101
aV/nfs-7/userdata/dataTuple/kludge/Run2016B_MuonEG_MINIAOD_03Feb2017_ver2-v2/merged/V08-00-18/merged_ntuple_7.root
p102
aV/nfs-7/userdata/dataTuple/kludge/Run2016B_MuonEG_MINIAOD_03Feb2017_ver2-v2/merged/V08-00-18/merged_ntuple_8.root
p103
aV/nfs-7/userdata/dataTuple/kludge/Run2016B_MuonEG_MINIAOD_03Feb2017_ver2-v2/merged/V08-00-18/merged_ntuple_9.root
p104
aV/nfs-7/userdata/dataTuple/kludge/Run2016B_MuonEG_MINIAOD_03Feb2017_ver2-v2/merged/V08-00-18/merged_ntuple_10.root
p105
aV/nfs-7/userdata/dataTuple/kludge/Run2016B_MuonEG_MINIAOD_03Feb2017_ver2-v2/merged/V08-00-18/merged_ntuple_11.root
p106
aV/nfs-7/userdata/dataTuple/kludge/Run2016B_MuonEG_MINIAOD_03Feb2017_ver2-v2/merged/V08-00-18/merged_ntuple_12.root
p107
aV/nfs-7/userdata/dataTuple/kludge/Run2016B_MuonEG_MINIAOD_03Feb2017_ver2-v2/merged/V08-00-18/merged_ntuple_13.root
p108
aV/nfs-7/userdata/dataTuple/kludge/Run2016B_MuonEG_MINIAOD_03Feb2017_ver2-v2/merged/V08-00-18/merged_ntuple_14.root
p109
aV/nfs-7/userdata/dataTuple/kludge/Run2016B_MuonEG_MINIAOD_03Feb2017_ver2-v2/merged/V08-00-18/merged_ntuple_15.root
p110
aV/nfs-7/userdata/dataTuple/kludge/Run2016B_MuonEG_MINIAOD_03Feb2017_ver2-v2/merged/V08-00-18/merged_ntuple_16.root
p111
aV/nfs-7/userdata/dataTuple/kludge/Run2016B_MuonEG_MINIAOD_03Feb2017_ver2-v2/merged/V08-00-18/merged_ntuple_17.root
p112
aV/nfs-7/userdata/dataTuple/kludge/Run2016B_MuonEG_MINIAOD_03Feb2017_ver2-v2/merged/V08-00-18/merged_ntuple_18.root
p113
aV/nfs-7/userdata/dataTuple/kludge/Run2016B_MuonEG_MINIAOD_03Feb2017_ver2-v2/merged/V08-00-18/merged_ntuple_19.root
p114
aV/nfs-7/userdata/dataTuple/kludge/Run2016B_MuonEG_MINIAOD_03Feb2017_ver2-v2/merged/V08-00-18/merged_ntuple_20.root
p115
aV/nfs-7/userdata/dataTuple/kludge/Run2016B_MuonEG_MINIAOD_03Feb2017_ver2-v2/merged/V08-00-18/merged_ntuple_21.root
p116
aV/nfs-7/userdata/dataTuple/kludge/Run2016B_MuonEG_MINIAOD_03Feb2017_ver2-v2/merged/V08-00-18/merged_ntuple_22.root
p117
aV/nfs-7/userdata/dataTuple/kludge/Run2016B_MuonEG_MINIAOD_03Feb2017_ver2-v2/merged/V08-00-18/merged_ntuple_23.root
p118
aV/nfs-7/userdata/dataTuple/kludge/Run2016B_MuonEG_MINIAOD_03Feb2017_ver2-v2/merged/V08-00-18/merged_ntuple_24.root
p119
aV/nfs-7/userdata/dataTuple/kludge/Run2016B_MuonEG_MINIAOD_03Feb2017_ver2-v2/merged/V08-00-18/merged_ntuple_25.root
p120
aV/nfs-7/userdata/dataTuple/kludge/Run2016B_MuonEG_MINIAOD_03Feb2017_ver2-v2/merged/V08-00-18/merged_ntuple_26.root
p121
aV/nfs-7/userdata/dataTuple/kludge/Run2016B_MuonEG_MINIAOD_03Feb2017_ver2-v2/merged/V08-00-18/merged_ntuple_27.root
p122
aV/nfs-7/userdata/dataTuple/kludge/Run2016B_MuonEG_MINIAOD_03Feb2017_ver2-v2/merged/V08-00-18/merged_ntuple_28.root
p123
aV/nfs-7/userdata/dataTuple/kludge/Run2016B_MuonEG_MINIAOD_03Feb2017_ver2-v2/merged/V08-00-18/merged_ntuple_29.root
p124
aV/nfs-7/userdata/dataTuple/kludge/Run2016B_MuonEG_MINIAOD_03Feb2017_ver2-v2/merged/V08-00-18/merged_ntuple_30.root
p125
aV/nfs-7/userdata/dataTuple/kludge/Run2016B_MuonEG_MINIAOD_03Feb2017_ver2-v2/merged/V08-00-18/merged_ntuple_31.root
p126
aV/nfs-7/userdata/dataTuple/kludge/Run2016B_MuonEG_MINIAOD_03Feb2017_ver2-v2/merged/V08-00-18/merged_ntuple_32.root
p127
aV/nfs-7/userdata/dataTuple/kludge/Run2016B_MuonEG_MINIAOD_03Feb2017_ver2-v2/merged/V08-00-18/merged_ntuple_33.root
p128
aV/nfs-7/userdata/dataTuple/kludge/Run2016B_MuonEG_MINIAOD_03Feb2017_ver2-v2/merged/V08-00-18/merged_ntuple_34.root
p129
aV/nfs-7/userdata/dataTuple/kludge/Run2016B_MuonEG_MINIAOD_03Feb2017_ver2-v2/merged/V08-00-18/merged_ntuple_35.root
p130
aV/nfs-7/userdata/dataTuple/kludge/Run2016B_MuonEG_MINIAOD_03Feb2017_ver2-v2/merged/V08-00-18/merged_ntuple_36.root
p131
aV/nfs-7/userdata/dataTuple/kludge/Run2016B_MuonEG_MINIAOD_03Feb2017_ver2-v2/merged/V08-00-18/merged_ntuple_37.root
p132
aV/nfs-7/userdata/dataTuple/kludge/Run2016B_MuonEG_MINIAOD_03Feb2017_ver2-v2/merged/V08-00-18/merged_ntuple_38.root
p133
aV/nfs-7/userdata/dataTuple/kludge/Run2016B_MuonEG_MINIAOD_03Feb2017_ver2-v2/merged/V08-00-18/merged_ntuple_39.root
p134
aV/nfs-7/userdata/dataTuple/kludge/Run2016B_MuonEG_MINIAOD_03Feb2017_ver2-v2/merged/V08-00-18/merged_ntuple_40.root
p135
aV/nfs-7/userdata/dataTuple/kludge/Run2016B_MuonEG_MINIAOD_03Feb2017_ver2-v2/merged/V08-00-18/merged_ntuple_41.root
p136
aV/nfs-7/userdata/dataTuple/kludge/Run2016B_MuonEG_MINIAOD_03Feb2017_ver2-v2/merged/V08-00-18/merged_ntuple_42.root
p137
aV/nfs-7/userdata/dataTuple/kludge/Run2016B_MuonEG_MINIAOD_03Feb2017_ver2-v2/merged/V08-00-18/merged_ntuple_43.root
p138
aV/nfs-7/userdata/dataTuple/kludge/Run2016B_MuonEG_MINIAOD_03Feb2017_ver2-v2/merged/V08-00-18/merged_ntuple_44.root
p139
aV/nfs-7/userdata/dataTuple/kludge/Run2016B_MuonEG_MINIAOD_03Feb2017_ver2-v2/merged/V08-00-18/merged_ntuple_45.root
p140
aV/nfs-7/userdata/dataTuple/kludge/Run2016B_MuonEG_MINIAOD_03Feb2017_ver2-v2/merged/V08-00-18/merged_ntuple_46.root
p141
aV/nfs-7/userdata/dataTuple/kludge/Run2016B_MuonEG_MINIAOD_03Feb2017_ver2-v2/merged/V08-00-18/merged_ntuple_47.root
p142
aV/nfs-7/userdata/dataTuple/kludge/Run2016B_MuonEG_MINIAOD_03Feb2017_ver2-v2/merged/V08-00-18/merged_ntuple_48.root
p143
aV/nfs-7/userdata/dataTuple/kludge/Run2016B_MuonEG_MINIAOD_03Feb2017_ver2-v2/merged/V08-00-18/merged_ntuple_49.root
p144
aV/nfs-7/userdata/dataTuple/kludge/Run2016B_MuonEG_MINIAOD_03Feb2017_ver2-v2/merged/V08-00-18/merged_ntuple_50.root
p145
aV/nfs-7/userdata/dataTuple/kludge/Run2016B_MuonEG_MINIAOD_03Feb2017_ver2-v2/merged/V08-00-18/merged_ntuple_51.root
p146
aV/nfs-7/userdata/dataTuple/kludge/Run2016B_MuonEG_MINIAOD_03Feb2017_ver2-v2/merged/V08-00-18/merged_ntuple_52.root
p147
aV/nfs-7/userdata/dataTuple/kludge/Run2016B_MuonEG_MINIAOD_03Feb2017_ver2-v2/merged/V08-00-18/merged_ntuple_53.root
p148
aV/nfs-7/userdata/dataTuple/kludge/Run2016B_MuonEG_MINIAOD_03Feb2017_ver2-v2/merged/V08-00-18/merged_ntuple_54.root
p149
aV/nfs-7/userdata/dataTuple/kludge/Run2016B_MuonEG_MINIAOD_03Feb2017_ver2-v2/merged/V08-00-18/merged_ntuple_55.root
p150
aV/nfs-7/userdata/dataTuple/kludge/Run2016B_MuonEG_MINIAOD_03Feb2017_ver2-v2/merged/V08-00-18/merged_ntuple_56.root
p151
aV/nfs-7/userdata/dataTuple/kludge/Run2016B_MuonEG_MINIAOD_03Feb2017_ver2-v2/merged/V08-00-18/merged_ntuple_57.root
p152
aV/nfs-7/userdata/dataTuple/kludge/Run2016B_MuonEG_MINIAOD_03Feb2017_ver2-v2/merged/V08-00-18/merged_ntuple_58.root
p153
aV/nfs-7/userdata/dataTuple/kludge/Run2016B_MuonEG_MINIAOD_03Feb2017_ver2-v2/merged/V08-00-18/merged_ntuple_59.root
p154
aV/nfs-7/userdata/dataTuple/kludge/Run2016B_MuonEG_MINIAOD_03Feb2017_ver2-v2/merged/V08-00-18/merged_ntuple_60.root
p155
aV/nfs-7/userdata/dataTuple/kludge/Run2016B_MuonEG_MINIAOD_03Feb2017_ver2-v2/merged/V08-00-18/merged_ntuple_61.root
p156
aV/nfs-7/userdata/dataTuple/kludge/Run2016B_MuonEG_MINIAOD_03Feb2017_ver2-v2/merged/V08-00-18/merged_ntuple_62.root
p157
aV/nfs-7/userdata/dataTuple/kludge/Run2016B_MuonEG_MINIAOD_03Feb2017_ver2-v2/merged/V08-00-18/merged_ntuple_63.root
p158
aV/nfs-7/userdata/dataTuple/kludge/Run2016B_MuonEG_MINIAOD_03Feb2017_ver2-v2/merged/V08-00-18/merged_ntuple_64.root
p159
aV/nfs-7/userdata/dataTuple/kludge/Run2016B_MuonEG_MINIAOD_03Feb2017_ver2-v2/merged/V08-00-18/merged_ntuple_65.root
p160
aV/nfs-7/userdata/dataTuple/kludge/Run2016B_MuonEG_MINIAOD_03Feb2017_ver2-v2/merged/V08-00-18/merged_ntuple_66.root
p161
aV/nfs-7/userdata/dataTuple/kludge/Run2016B_MuonEG_MINIAOD_03Feb2017_ver2-v2/merged/V08-00-18/merged_ntuple_67.root
p162
aV/nfs-7/userdata/dataTuple/kludge/Run2016B_MuonEG_MINIAOD_03Feb2017_ver2-v2/merged/V08-00-18/merged_ntuple_68.root
p163
aV/nfs-7/userdata/dataTuple/kludge/Run2016B_MuonEG_MINIAOD_03Feb2017_ver2-v2/merged/V08-00-18/merged_ntuple_69.root
p164
aV/nfs-7/userdata/dataTuple/kludge/Run2016B_MuonEG_MINIAOD_03Feb2017_ver2-v2/merged/V08-00-18/merged_ntuple_70.root
p165
aV/nfs-7/userdata/dataTuple/kludge/Run2016B_MuonEG_MINIAOD_03Feb2017_ver2-v2/merged/V08-00-18/merged_ntuple_71.root
p166
aV/nfs-7/userdata/dataTuple/kludge/Run2016B_MuonEG_MINIAOD_03Feb2017_ver2-v2/merged/V08-00-18/merged_ntuple_72.root
p167
aV/nfs-7/userdata/dataTuple/kludge/Run2016B_MuonEG_MINIAOD_03Feb2017_ver2-v2/merged/V08-00-18/merged_ntuple_73.root
p168
aV/nfs-7/userdata/dataTuple/kludge/Run2016B_MuonEG_MINIAOD_03Feb2017_ver2-v2/merged/V08-00-18/merged_ntuple_74.root
p169
aV/nfs-7/userdata/dataTuple/kludge/Run2016B_MuonEG_MINIAOD_03Feb2017_ver2-v2/merged/V08-00-18/merged_ntuple_75.root
p170
aV/nfs-7/userdata/dataTuple/kludge/Run2016B_MuonEG_MINIAOD_03Feb2017_ver2-v2/merged/V08-00-18/merged_ntuple_76.root
p171
aV/nfs-7/userdata/dataTuple/kludge/Run2016B_MuonEG_MINIAOD_03Feb2017_ver2-v2/merged/V08-00-18/merged_ntuple_77.root
p172
aV/nfs-7/userdata/dataTuple/kludge/Run2016B_MuonEG_MINIAOD_03Feb2017_ver2-v2/merged/V08-00-18/merged_ntuple_78.root
p173
aV/nfs-7/userdata/dataTuple/kludge/Run2016B_MuonEG_MINIAOD_03Feb2017_ver2-v2/merged/V08-00-18/merged_ntuple_79.root
p174
aV/nfs-7/userdata/dataTuple/kludge/Run2016B_MuonEG_MINIAOD_03Feb2017_ver2-v2/merged/V08-00-18/merged_ntuple_80.root
p175
aV/nfs-7/userdata/dataTuple/kludge/Run2016B_MuonEG_MINIAOD_03Feb2017_ver2-v2/merged/V08-00-18/merged_ntuple_81.root
p176
aV/nfs-7/userdata/dataTuple/kludge/Run2016B_MuonEG_MINIAOD_03Feb2017_ver2-v2/merged/V08-00-18/merged_ntuple_82.root
p177
aV/nfs-7/userdata/dataTuple/kludge/Run2016B_MuonEG_MINIAOD_03Feb2017_ver2-v2/merged/V08-00-18/merged_ntuple_83.root
p178
aV/nfs-7/userdata/dataTuple/kludge/Run2016B_MuonEG_MINIAOD_03Feb2017_ver2-v2/merged/V08-00-18/merged_ntuple_84.root
p179
aV/nfs-7/userdata/dataTuple/kludge/Run2016B_MuonEG_MINIAOD_03Feb2017_ver2-v2/merged/V08-00-18/merged_ntuple_85.root
p180
aV/nfs-7/userdata/dataTuple/kludge/Run2016B_MuonEG_MINIAOD_03Feb2017_ver2-v2/merged/V08-00-18/merged_ntuple_86.root
p181
aV/nfs-7/userdata/dataTuple/kludge/Run2016B_MuonEG_MINIAOD_03Feb2017_ver2-v2/merged/V08-00-18/merged_ntuple_87.root
p182
aV/nfs-7/userdata/dataTuple/kludge/Run2016B_MuonEG_MINIAOD_03Feb2017_ver2-v2/merged/V08-00-18/merged_ntuple_88.root
p183
aV/nfs-7/userdata/dataTuple/kludge/Run2016B_MuonEG_MINIAOD_03Feb2017_ver2-v2/merged/V08-00-18/merged_ntuple_89.root
p184
aV/nfs-7/userdata/dataTuple/kludge/Run2016B_MuonEG_MINIAOD_03Feb2017_ver2-v2/merged/V08-00-18/merged_ntuple_90.root
p185
aV/nfs-7/userdata/dataTuple/kludge/Run2016B_MuonEG_MINIAOD_03Feb2017_ver2-v2/merged/V08-00-18/merged_ntuple_91.root
p186
aV/nfs-7/userdata/dataTuple/kludge/Run2016B_MuonEG_MINIAOD_03Feb2017_ver2-v2/merged/V08-00-18/merged_ntuple_92.root
p187
aV/nfs-7/userdata/dataTuple/kludge/Run2016B_MuonEG_MINIAOD_03Feb2017_ver2-v2/merged/V08-00-18/merged_ntuple_93.root
p188
aV/nfs-7/userdata/dataTuple/kludge/Run2016B_MuonEG_MINIAOD_03Feb2017_ver2-v2/merged/V08-00-18/merged_ntuple_94.root
p189
aV/nfs-7/userdata/dataTuple/kludge/Run2016B_MuonEG_MINIAOD_03Feb2017_ver2-v2/merged/V08-00-18/merged_ntuple_95.root
p190
aV/nfs-7/userdata/dataTuple/kludge/Run2016B_MuonEG_MINIAOD_03Feb2017_ver2-v2/merged/V08-00-18/merged_ntuple_96.root
p191
aV/nfs-7/userdata/dataTuple/kludge/Run2016B_MuonEG_MINIAOD_03Feb2017_ver2-v2/merged/V08-00-18/merged_ntuple_97.root
p192
aV/nfs-7/userdata/dataTuple/kludge/Run2016B_MuonEG_MINIAOD_03Feb2017_ver2-v2/merged/V08-00-18/merged_ntuple_98.root
p193
aV/nfs-7/userdata/dataTuple/kludge/Run2016B_MuonEG_MINIAOD_03Feb2017_ver2-v2/merged/V08-00-18/merged_ntuple_99.root
p194
aV/nfs-7/userdata/dataTuple/kludge/Run2016B_MuonEG_MINIAOD_03Feb2017_ver2-v2/merged/V08-00-18/merged_ntuple_100.root
p195
aV/nfs-7/userdata/dataTuple/kludge/Run2016B_MuonEG_MINIAOD_03Feb2017_ver2-v2/merged/V08-00-18/merged_ntuple_101.root
p196
aV/nfs-7/userdata/dataTuple/kludge/Run2016B_MuonEG_MINIAOD_03Feb2017_ver2-v2/merged/V08-00-18/merged_ntuple_102.root
p197
aV/nfs-7/userdata/dataTuple/kludge/Run2016B_MuonEG_MINIAOD_03Feb2017_ver2-v2/merged/V08-00-18/merged_ntuple_103.root
p198
aV/nfs-7/userdata/dataTuple/kludge/Run2016B_MuonEG_MINIAOD_03Feb2017_ver2-v2/merged/V08-00-18/merged_ntuple_104.root
p199
aV/nfs-7/userdata/dataTuple/kludge/Run2016B_MuonEG_MINIAOD_03Feb2017_ver2-v2/merged/V08-00-18/merged_ntuple_105.root
p200
aV/nfs-7/userdata/dataTuple/kludge/Run2016B_MuonEG_MINIAOD_03Feb2017_ver2-v2/merged/V08-00-18/merged_ntuple_106.root
p201
aV/nfs-7/userdata/dataTuple/kludge/Run2016B_MuonEG_MINIAOD_03Feb2017_ver2-v2/merged/V08-00-18/merged_ntuple_107.root
p202
aV/nfs-7/userdata/dataTuple/kludge/Run2016B_MuonEG_MINIAOD_03Feb2017_ver2-v2/merged/V08-00-18/merged_ntuple_108.root
p203
aV/nfs-7/userdata/dataTuple/kludge/Run2016B_MuonEG_MINIAOD_03Feb2017_ver2-v2/merged/V08-00-18/merged_ntuple_109.root
p204
aV/nfs-7/userdata/dataTuple/kludge/Run2016B_MuonEG_MINIAOD_03Feb2017_ver2-v2/merged/V08-00-18/merged_ntuple_110.root
p205
aV/nfs-7/userdata/dataTuple/kludge/Run2016B_MuonEG_MINIAOD_03Feb2017_ver2-v2/merged/V08-00-18/merged_ntuple_111.root
p206
aV/nfs-7/userdata/dataTuple/kludge/Run2016B_MuonEG_MINIAOD_03Feb2017_ver2-v2/merged/V08-00-18/merged_ntuple_112.root
p207
aV/nfs-7/userdata/dataTuple/kludge/Run2016B_MuonEG_MINIAOD_03Feb2017_ver2-v2/merged/V08-00-18/merged_ntuple_113.root
p208
aV/nfs-7/userdata/dataTuple/kludge/Run2016B_MuonEG_MINIAOD_03Feb2017_ver2-v2/merged/V08-00-18/merged_ntuple_114.root
p209
aV/nfs-7/userdata/dataTuple/kludge/Run2016B_MuonEG_MINIAOD_03Feb2017_ver2-v2/merged/V08-00-18/merged_ntuple_115.root
p210
aV/nfs-7/userdata/dataTuple/kludge/Run2016B_MuonEG_MINIAOD_03Feb2017_ver2-v2/merged/V08-00-18/merged_ntuple_116.root
p211
aV/nfs-7/userdata/dataTuple/kludge/Run2016B_MuonEG_MINIAOD_03Feb2017_ver2-v2/merged/V08-00-18/merged_ntuple_117.root
p212
aV/nfs-7/userdata/dataTuple/kludge/Run2016B_MuonEG_MINIAOD_03Feb2017_ver2-v2/merged/V08-00-18/merged_ntuple_118.root
p213
aV/nfs-7/userdata/dataTuple/kludge/Run2016B_MuonEG_MINIAOD_03Feb2017_ver2-v2/merged/V08-00-18/merged_ntuple_119.root
p214
aV/nfs-7/userdata/dataTuple/kludge/Run2016B_MuonEG_MINIAOD_03Feb2017_ver2-v2/merged/V08-00-18/merged_ntuple_120.root
p215
aV/nfs-7/userdata/dataTuple/kludge/Run2016B_MuonEG_MINIAOD_03Feb2017_ver2-v2/merged/V08-00-18/merged_ntuple_121.root
p216
aV/nfs-7/userdata/dataTuple/kludge/Run2016B_MuonEG_MINIAOD_03Feb2017_ver2-v2/merged/V08-00-18/merged_ntuple_122.root
p217
aV/nfs-7/userdata/dataTuple/kludge/Run2016B_MuonEG_MINIAOD_03Feb2017_ver2-v2/merged/V08-00-18/merged_ntuple_123.root
p218
aV/nfs-7/userdata/dataTuple/kludge/Run2016B_MuonEG_MINIAOD_03Feb2017_ver2-v2/merged/V08-00-18/merged_ntuple_124.root
p219
aV/nfs-7/userdata/dataTuple/kludge/Run2016B_MuonEG_MINIAOD_03Feb2017_ver2-v2/merged/V08-00-18/merged_ntuple_125.root
p220
aV/nfs-7/userdata/dataTuple/kludge/Run2016B_MuonEG_MINIAOD_03Feb2017_ver2-v2/merged/V08-00-18/merged_ntuple_126.root
p221
aV/nfs-7/userdata/dataTuple/kludge/Run2016B_MuonEG_MINIAOD_03Feb2017_ver2-v2/merged/V08-00-18/merged_ntuple_127.root
p222
aV/nfs-7/userdata/dataTuple/kludge/Run2016B_MuonEG_MINIAOD_03Feb2017_ver2-v2/merged/V08-00-18/merged_ntuple_128.root
p223
aV/nfs-7/userdata/dataTuple/kludge/Run2016B_MuonEG_MINIAOD_03Feb2017_ver2-v2/merged/V08-00-18/merged_ntuple_129.root
p224
aV/nfs-7/userdata/dataTuple/kludge/Run2016B_MuonEG_MINIAOD_03Feb2017_ver2-v2/merged/V08-00-18/merged_ntuple_130.root
p225
aV/nfs-7/userdata/dataTuple/kludge/Run2016B_MuonEG_MINIAOD_03Feb2017_ver2-v2/merged/V08-00-18/merged_ntuple_131.root
p226
aV/nfs-7/userdata/dataTuple/kludge/Run2016B_MuonEG_MINIAOD_03Feb2017_ver2-v2/merged/V08-00-18/merged_ntuple_132.root
p227
aV/nfs-7/userdata/dataTuple/kludge/Run2016B_MuonEG_MINIAOD_03Feb2017_ver2-v2/merged/V08-00-18/merged_ntuple_133.root
p228
aV/nfs-7/userdata/dataTuple/kludge/Run2016B_MuonEG_MINIAOD_03Feb2017_ver2-v2/merged/V08-00-18/merged_ntuple_134.root
p229
aV/nfs-7/userdata/dataTuple/kludge/Run2016B_MuonEG_MINIAOD_03Feb2017_ver2-v2/merged/V08-00-18/merged_ntuple_135.root
p230
aV/nfs-7/userdata/dataTuple/kludge/Run2016B_MuonEG_MINIAOD_03Feb2017_ver2-v2/merged/V08-00-18/merged_ntuple_136.root
p231
aV/nfs-7/userdata/dataTuple/kludge/Run2016B_MuonEG_MINIAOD_03Feb2017_ver2-v2/merged/V08-00-18/merged_ntuple_137.root
p232
aV/nfs-7/userdata/dataTuple/kludge/Run2016B_MuonEG_MINIAOD_03Feb2017_ver2-v2/merged/V08-00-18/merged_ntuple_138.root
p233
aV/nfs-7/userdata/dataTuple/kludge/Run2016B_MuonEG_MINIAOD_03Feb2017_ver2-v2/merged/V08-00-18/merged_ntuple_139.root
p234
aV/nfs-7/userdata/dataTuple/kludge/Run2016B_MuonEG_MINIAOD_03Feb2017_ver2-v2/merged/V08-00-18/merged_ntuple_140.root
p235
aV/nfs-7/userdata/dataTuple/kludge/Run2016B_MuonEG_MINIAOD_03Feb2017_ver2-v2/merged/V08-00-18/merged_ntuple_141.root
p236
aV/nfs-7/userdata/dataTuple/kludge/Run2016B_MuonEG_MINIAOD_03Feb2017_ver2-v2/merged/V08-00-18/merged_ntuple_142.root
p237
aV/nfs-7/userdata/dataTuple/kludge/Run2016B_MuonEG_MINIAOD_03Feb2017_ver2-v2/merged/V08-00-18/merged_ntuple_143.root
p238
aV/nfs-7/userdata/dataTuple/kludge/Run2016B_MuonEG_MINIAOD_03Feb2017_ver2-v2/merged/V08-00-18/merged_ntuple_144.root
p239
aV/nfs-7/userdata/dataTuple/kludge/Run2016B_MuonEG_MINIAOD_03Feb2017_ver2-v2/merged/V08-00-18/merged_ntuple_145.root
p240
aV/nfs-7/userdata/dataTuple/kludge/Run2016B_MuonEG_MINIAOD_03Feb2017_ver2-v2/merged/V08-00-18/merged_ntuple_146.root
p241
aV/nfs-7/userdata/dataTuple/kludge/Run2016B_MuonEG_MINIAOD_03Feb2017_ver2-v2/merged/V08-00-18/merged_ntuple_147.root
p242
aV/nfs-7/userdata/dataTuple/kludge/Run2016B_MuonEG_MINIAOD_03Feb2017_ver2-v2/merged/V08-00-18/merged_ntuple_148.root
p243
aV/nfs-7/userdata/dataTuple/kludge/Run2016B_MuonEG_MINIAOD_03Feb2017_ver2-v2/merged/V08-00-18/merged_ntuple_149.root
p244
aV/nfs-7/userdata/dataTuple/kludge/Run2016B_MuonEG_MINIAOD_03Feb2017_ver2-v2/merged/V08-00-18/merged_ntuple_150.root
p245
aV/nfs-7/userdata/dataTuple/kludge/Run2016B_MuonEG_MINIAOD_03Feb2017_ver2-v2/merged/V08-00-18/merged_ntuple_151.root
p246
aV/nfs-7/userdata/dataTuple/kludge/Run2016B_MuonEG_MINIAOD_03Feb2017_ver2-v2/merged/V08-00-18/merged_ntuple_152.root
p247
aV/nfs-7/userdata/dataTuple/kludge/Run2016B_MuonEG_MINIAOD_03Feb2017_ver2-v2/merged/V08-00-18/merged_ntuple_153.root
p248
aV/nfs-7/userdata/dataTuple/kludge/Run2016B_MuonEG_MINIAOD_03Feb2017_ver2-v2/merged/V08-00-18/merged_ntuple_154.root
p249
aV/nfs-7/userdata/dataTuple/kludge/Run2016B_MuonEG_MINIAOD_03Feb2017_ver2-v2/merged/V08-00-18/merged_ntuple_155.root
p250
aV/nfs-7/userdata/dataTuple/kludge/Run2016B_MuonEG_MINIAOD_03Feb2017_ver2-v2/merged/V08-00-18/merged_ntuple_156.root
p251
aV/nfs-7/userdata/dataTuple/kludge/Run2016B_MuonEG_MINIAOD_03Feb2017_ver2-v2/merged/V08-00-18/merged_ntuple_157.root
p252
aV/nfs-7/userdata/dataTuple/kludge/Run2016B_MuonEG_MINIAOD_03Feb2017_ver2-v2/merged/V08-00-18/merged_ntuple_158.root
p253
aV/nfs-7/userdata/dataTuple/kludge/Run2016B_MuonEG_MINIAOD_03Feb2017_ver2-v2/merged/V08-00-18/merged_ntuple_159.root
p254
aV/nfs-7/userdata/dataTuple/kludge/Run2016B_MuonEG_MINIAOD_03Feb2017_ver2-v2/merged/V08-00-18/merged_ntuple_160.root
p255
aV/nfs-7/userdata/dataTuple/kludge/Run2016B_MuonEG_MINIAOD_03Feb2017_ver2-v2/merged/V08-00-18/merged_ntuple_161.root
p256
aV/nfs-7/userdata/dataTuple/kludge/Run2016B_MuonEG_MINIAOD_03Feb2017_ver2-v2/merged/V08-00-18/merged_ntuple_162.root
p257
aV/nfs-7/userdata/dataTuple/kludge/Run2016B_MuonEG_MINIAOD_03Feb2017_ver2-v2/merged/V08-00-18/merged_ntuple_163.root
p258
aV/nfs-7/userdata/dataTuple/kludge/Run2016B_MuonEG_MINIAOD_03Feb2017_ver2-v2/merged/V08-00-18/merged_ntuple_164.root
p259
aV/nfs-7/userdata/dataTuple/kludge/Run2016B_MuonEG_MINIAOD_03Feb2017_ver2-v2/merged/V08-00-18/merged_ntuple_165.root
p260
aV/nfs-7/userdata/dataTuple/kludge/Run2016B_MuonEG_MINIAOD_03Feb2017_ver2-v2/merged/V08-00-18/merged_ntuple_166.root
p261
aV/nfs-7/userdata/dataTuple/kludge/Run2016B_MuonEG_MINIAOD_03Feb2017_ver2-v2/merged/V08-00-18/merged_ntuple_167.root
p262
aV/nfs-7/userdata/dataTuple/kludge/Run2016B_MuonEG_MINIAOD_03Feb2017_ver2-v2/merged/V08-00-18/merged_ntuple_168.root
p263
aV/nfs-7/userdata/dataTuple/kludge/Run2016B_MuonEG_MINIAOD_03Feb2017_ver2-v2/merged/V08-00-18/merged_ntuple_169.root
p264
aV/nfs-7/userdata/dataTuple/kludge/Run2016B_MuonEG_MINIAOD_03Feb2017_ver2-v2/merged/V08-00-18/merged_ntuple_170.root
p265
aV/nfs-7/userdata/dataTuple/kludge/Run2016B_MuonEG_MINIAOD_03Feb2017_ver2-v2/merged/V08-00-18/merged_ntuple_171.root
p266
aV/nfs-7/userdata/dataTuple/kludge/Run2016B_MuonEG_MINIAOD_03Feb2017_ver2-v2/merged/V08-00-18/merged_ntuple_172.root
p267
aV/nfs-7/userdata/dataTuple/kludge/Run2016B_MuonEG_MINIAOD_03Feb2017_ver2-v2/merged/V08-00-18/merged_ntuple_173.root
p268
aV/nfs-7/userdata/dataTuple/kludge/Run2016B_MuonEG_MINIAOD_03Feb2017_ver2-v2/merged/V08-00-18/merged_ntuple_174.root
p269
aV/nfs-7/userdata/dataTuple/kludge/Run2016B_MuonEG_MINIAOD_03Feb2017_ver2-v2/merged/V08-00-18/merged_ntuple_175.root
p270
aV/nfs-7/userdata/dataTuple/kludge/Run2016B_MuonEG_MINIAOD_03Feb2017_ver2-v2/merged/V08-00-18/merged_ntuple_176.root
p271
aV/nfs-7/userdata/dataTuple/kludge/Run2016B_MuonEG_MINIAOD_03Feb2017_ver2-v2/merged/V08-00-18/merged_ntuple_177.root
p272
aV/nfs-7/userdata/dataTuple/kludge/Run2016B_MuonEG_MINIAOD_03Feb2017_ver2-v2/merged/V08-00-18/merged_ntuple_178.root
p273
aV/nfs-7/userdata/dataTuple/kludge/Run2016B_MuonEG_MINIAOD_03Feb2017_ver2-v2/merged/V08-00-18/merged_ntuple_179.root
p274
aV/nfs-7/userdata/dataTuple/kludge/Run2016B_MuonEG_MINIAOD_03Feb2017_ver2-v2/merged/V08-00-18/merged_ntuple_180.root
p275
aV/nfs-7/userdata/dataTuple/kludge/Run2016B_MuonEG_MINIAOD_03Feb2017_ver2-v2/merged/V08-00-18/merged_ntuple_181.root
p276
aV/nfs-7/userdata/dataTuple/kludge/Run2016B_MuonEG_MINIAOD_03Feb2017_ver2-v2/merged/V08-00-18/merged_ntuple_182.root
p277
aV/nfs-7/userdata/dataTuple/kludge/Run2016B_MuonEG_MINIAOD_03Feb2017_ver2-v2/merged/V08-00-18/merged_ntuple_183.root
p278
aV/nfs-7/userdata/dataTuple/kludge/Run2016B_MuonEG_MINIAOD_03Feb2017_ver2-v2/merged/V08-00-18/merged_ntuple_184.root
p279
aV/nfs-7/userdata/dataTuple/kludge/Run2016B_MuonEG_MINIAOD_03Feb2017_ver2-v2/merged/V08-00-18/merged_ntuple_185.root
p280
aV/nfs-7/userdata/dataTuple/kludge/Run2016B_MuonEG_MINIAOD_03Feb2017_ver2-v2/merged/V08-00-18/merged_ntuple_186.root
p281
aV/nfs-7/userdata/dataTuple/kludge/Run2016B_MuonEG_MINIAOD_03Feb2017_ver2-v2/merged/V08-00-18/merged_ntuple_187.root
p282
aV/nfs-7/userdata/dataTuple/kludge/Run2016B_MuonEG_MINIAOD_03Feb2017_ver2-v2/merged/V08-00-18/merged_ntuple_188.root
p283
aV/nfs-7/userdata/dataTuple/kludge/Run2016B_MuonEG_MINIAOD_03Feb2017_ver2-v2/merged/V08-00-18/merged_ntuple_189.root
p284
aV/nfs-7/userdata/dataTuple/kludge/Run2016B_MuonEG_MINIAOD_03Feb2017_ver2-v2/merged/V08-00-18/merged_ntuple_190.root
p285
aV/nfs-7/userdata/dataTuple/kludge/Run2016B_MuonEG_MINIAOD_03Feb2017_ver2-v2/merged/V08-00-18/merged_ntuple_191.root
p286
aV/nfs-7/userdata/dataTuple/kludge/Run2016B_MuonEG_MINIAOD_03Feb2017_ver2-v2/merged/V08-00-18/merged_ntuple_192.root
p287
aV/nfs-7/userdata/dataTuple/kludge/Run2016B_MuonEG_MINIAOD_03Feb2017_ver2-v2/merged/V08-00-18/merged_ntuple_193.root
p288
aV/nfs-7/userdata/dataTuple/kludge/Run2016B_MuonEG_MINIAOD_03Feb2017_ver2-v2/merged/V08-00-18/merged_ntuple_194.root
p289
aV/nfs-7/userdata/dataTuple/kludge/Run2016B_MuonEG_MINIAOD_03Feb2017_ver2-v2/merged/V08-00-18/merged_ntuple_195.root
p290
aV/nfs-7/userdata/dataTuple/kludge/Run2016B_MuonEG_MINIAOD_03Feb2017_ver2-v2/merged/V08-00-18/merged_ntuple_196.root
p291
aV/nfs-7/userdata/dataTuple/kludge/Run2016B_MuonEG_MINIAOD_03Feb2017_ver2-v2/merged/V08-00-18/merged_ntuple_197.root
p292
aV/nfs-7/userdata/dataTuple/kludge/Run2016B_MuonEG_MINIAOD_03Feb2017_ver2-v2/merged/V08-00-18/merged_ntuple_198.root
p293
aV/nfs-7/userdata/dataTuple/kludge/Run2016B_MuonEG_MINIAOD_03Feb2017_ver2-v2/merged/V08-00-18/merged_ntuple_199.root
p294
aV/nfs-7/userdata/dataTuple/kludge/Run2016B_MuonEG_MINIAOD_03Feb2017_ver2-v2/merged/V08-00-18/merged_ntuple_200.root
p295
aV/nfs-7/userdata/dataTuple/kludge/Run2016B_MuonEG_MINIAOD_03Feb2017_ver2-v2/merged/V08-00-18/merged_ntuple_201.root
p296
aV/nfs-7/userdata/dataTuple/kludge/Run2016B_MuonEG_MINIAOD_03Feb2017_ver2-v2/merged/V08-00-18/merged_ntuple_202.root
p297
aV/nfs-7/userdata/dataTuple/kludge/Run2016B_MuonEG_MINIAOD_03Feb2017_ver2-v2/merged/V08-00-18/merged_ntuple_203.root
p298
aV/nfs-7/userdata/dataTuple/kludge/Run2016B_MuonEG_MINIAOD_03Feb2017_ver2-v2/merged/V08-00-18/merged_ntuple_204.root
p299
aV/nfs-7/userdata/dataTuple/kludge/Run2016B_MuonEG_MINIAOD_03Feb2017_ver2-v2/merged/V08-00-18/merged_ntuple_205.root
p300
aV/nfs-7/userdata/dataTuple/kludge/Run2016B_MuonEG_MINIAOD_03Feb2017_ver2-v2/merged/V08-00-18/merged_ntuple_206.root
p301
aV/nfs-7/userdata/dataTuple/kludge/Run2016B_MuonEG_MINIAOD_03Feb2017_ver2-v2/merged/V08-00-18/merged_ntuple_207.root
p302
aV/nfs-7/userdata/dataTuple/kludge/Run2016B_MuonEG_MINIAOD_03Feb2017_ver2-v2/merged/V08-00-18/merged_ntuple_208.root
p303
aV/nfs-7/userdata/dataTuple/kludge/Run2016B_MuonEG_MINIAOD_03Feb2017_ver2-v2/merged/V08-00-18/merged_ntuple_209.root
p304
aV/nfs-7/userdata/dataTuple/kludge/Run2016B_MuonEG_MINIAOD_03Feb2017_ver2-v2/merged/V08-00-18/merged_ntuple_210.root
p305
aV/nfs-7/userdata/dataTuple/kludge/Run2016B_MuonEG_MINIAOD_03Feb2017_ver2-v2/merged/V08-00-18/merged_ntuple_211.root
p306
aV/nfs-7/userdata/dataTuple/kludge/Run2016B_MuonEG_MINIAOD_03Feb2017_ver2-v2/merged/V08-00-18/merged_ntuple_212.root
p307
aV/nfs-7/userdata/dataTuple/kludge/Run2016B_MuonEG_MINIAOD_03Feb2017_ver2-v2/merged/V08-00-18/merged_ntuple_213.root
p308
aV/nfs-7/userdata/dataTuple/kludge/Run2016B_MuonEG_MINIAOD_03Feb2017_ver2-v2/merged/V08-00-18/merged_ntuple_214.root
p309
aV/nfs-7/userdata/dataTuple/kludge/Run2016B_MuonEG_MINIAOD_03Feb2017_ver2-v2/merged/V08-00-18/merged_ntuple_215.root
p310
aV/nfs-7/userdata/dataTuple/kludge/Run2016B_MuonEG_MINIAOD_03Feb2017_ver2-v2/merged/V08-00-18/merged_ntuple_216.root
p311
aV/nfs-7/userdata/dataTuple/kludge/Run2016B_MuonEG_MINIAOD_03Feb2017_ver2-v2/merged/V08-00-18/merged_ntuple_217.root
p312
aV/nfs-7/userdata/dataTuple/kludge/Run2016B_MuonEG_MINIAOD_03Feb2017_ver2-v2/merged/V08-00-18/merged_ntuple_218.root
p313
aV/nfs-7/userdata/dataTuple/kludge/Run2016B_MuonEG_MINIAOD_03Feb2017_ver2-v2/merged/V08-00-18/merged_ntuple_219.root
p314
aV/nfs-7/userdata/dataTuple/kludge/Run2016B_MuonEG_MINIAOD_03Feb2017_ver2-v2/merged/V08-00-18/merged_ntuple_220.root
p315
aV/nfs-7/userdata/dataTuple/kludge/Run2016B_MuonEG_MINIAOD_03Feb2017_ver2-v2/merged/V08-00-18/merged_ntuple_221.root
p316
aV/nfs-7/userdata/dataTuple/kludge/Run2016B_MuonEG_MINIAOD_03Feb2017_ver2-v2/merged/V08-00-18/merged_ntuple_222.root
p317
aV/nfs-7/userdata/dataTuple/kludge/Run2016B_MuonEG_MINIAOD_03Feb2017_ver2-v2/merged/V08-00-18/merged_ntuple_223.root
p318
aV/nfs-7/userdata/dataTuple/kludge/Run2016B_MuonEG_MINIAOD_03Feb2017_ver2-v2/merged/V08-00-18/merged_ntuple_224.root
p319
aV/nfs-7/userdata/dataTuple/kludge/Run2016B_MuonEG_MINIAOD_03Feb2017_ver2-v2/merged/V08-00-18/merged_ntuple_225.root
p320
aV/nfs-7/userdata/dataTuple/kludge/Run2016B_MuonEG_MINIAOD_03Feb2017_ver2-v2/merged/V08-00-18/merged_ntuple_226.root
p321
aV/nfs-7/userdata/dataTuple/kludge/Run2016B_MuonEG_MINIAOD_03Feb2017_ver2-v2/merged/V08-00-18/merged_ntuple_227.root
p322
aV/nfs-7/userdata/dataTuple/kludge/Run2016B_MuonEG_MINIAOD_03Feb2017_ver2-v2/merged/V08-00-18/merged_ntuple_228.root
p323
aV/nfs-7/userdata/dataTuple/kludge/Run2016B_MuonEG_MINIAOD_03Feb2017_ver2-v2/merged/V08-00-18/merged_ntuple_229.root
p324
aV/nfs-7/userdata/dataTuple/kludge/Run2016B_MuonEG_MINIAOD_03Feb2017_ver2-v2/merged/V08-00-18/merged_ntuple_230.root
p325
aV/nfs-7/userdata/dataTuple/kludge/Run2016B_MuonEG_MINIAOD_03Feb2017_ver2-v2/merged/V08-00-18/merged_ntuple_231.root
p326
aV/nfs-7/userdata/dataTuple/kludge/Run2016B_MuonEG_MINIAOD_03Feb2017_ver2-v2/merged/V08-00-18/merged_ntuple_232.root
p327
aV/nfs-7/userdata/dataTuple/kludge/Run2016B_MuonEG_MINIAOD_03Feb2017_ver2-v2/merged/V08-00-18/merged_ntuple_233.root
p328
aV/nfs-7/userdata/dataTuple/kludge/Run2016B_MuonEG_MINIAOD_03Feb2017_ver2-v2/merged/V08-00-18/merged_ntuple_234.root
p329
aV/nfs-7/userdata/dataTuple/kludge/Run2016B_MuonEG_MINIAOD_03Feb2017_ver2-v2/merged/V08-00-18/merged_ntuple_235.root
p330
aV/nfs-7/userdata/dataTuple/kludge/Run2016B_MuonEG_MINIAOD_03Feb2017_ver2-v2/merged/V08-00-18/merged_ntuple_236.root
p331
aV/nfs-7/userdata/dataTuple/kludge/Run2016B_MuonEG_MINIAOD_03Feb2017_ver2-v2/merged/V08-00-18/merged_ntuple_237.root
p332
aV/nfs-7/userdata/dataTuple/kludge/Run2016B_MuonEG_MINIAOD_03Feb2017_ver2-v2/merged/V08-00-18/merged_ntuple_238.root
p333
aV/nfs-7/userdata/dataTuple/kludge/Run2016B_MuonEG_MINIAOD_03Feb2017_ver2-v2/merged/V08-00-18/merged_ntuple_239.root
p334
aV/nfs-7/userdata/dataTuple/kludge/Run2016B_MuonEG_MINIAOD_03Feb2017_ver2-v2/merged/V08-00-18/merged_ntuple_240.root
p335
aV/nfs-7/userdata/dataTuple/kludge/Run2016B_MuonEG_MINIAOD_03Feb2017_ver2-v2/merged/V08-00-18/merged_ntuple_241.root
p336
aV/nfs-7/userdata/dataTuple/kludge/Run2016B_MuonEG_MINIAOD_03Feb2017_ver2-v2/merged/V08-00-18/merged_ntuple_242.root
p337
aV/nfs-7/userdata/dataTuple/kludge/Run2016B_MuonEG_MINIAOD_03Feb2017_ver2-v2/merged/V08-00-18/merged_ntuple_243.root
p338
aV/nfs-7/userdata/dataTuple/kludge/Run2016B_MuonEG_MINIAOD_03Feb2017_ver2-v2/merged/V08-00-18/merged_ntuple_244.root
p339
aV/nfs-7/userdata/dataTuple/kludge/Run2016B_MuonEG_MINIAOD_03Feb2017_ver2-v2/merged/V08-00-18/merged_ntuple_245.root
p340
aV/nfs-7/userdata/dataTuple/kludge/Run2016B_MuonEG_MINIAOD_03Feb2017_ver2-v2/merged/V08-00-18/merged_ntuple_246.root
p341
aV/nfs-7/userdata/dataTuple/kludge/Run2016B_MuonEG_MINIAOD_03Feb2017_ver2-v2/merged/V08-00-18/merged_ntuple_247.root
p342
aV/nfs-7/userdata/dataTuple/kludge/Run2016B_MuonEG_MINIAOD_03Feb2017_ver2-v2/merged/V08-00-18/merged_ntuple_248.root
p343
aV/nfs-7/userdata/dataTuple/kludge/Run2016B_MuonEG_MINIAOD_03Feb2017_ver2-v2/merged/V08-00-18/merged_ntuple_249.root
p344
aV/nfs-7/userdata/dataTuple/kludge/Run2016B_MuonEG_MINIAOD_03Feb2017_ver2-v2/merged/V08-00-18/merged_ntuple_250.root
p345
aV/nfs-7/userdata/dataTuple/kludge/Run2016B_MuonEG_MINIAOD_03Feb2017_ver2-v2/merged/V08-00-18/merged_ntuple_251.root
p346
aV/nfs-7/userdata/dataTuple/kludge/Run2016B_MuonEG_MINIAOD_03Feb2017_ver2-v2/merged/V08-00-18/merged_ntuple_252.root
p347
aV/nfs-7/userdata/dataTuple/kludge/Run2016B_MuonEG_MINIAOD_03Feb2017_ver2-v2/merged/V08-00-18/merged_ntuple_253.root
p348
aV/nfs-7/userdata/dataTuple/kludge/Run2016B_MuonEG_MINIAOD_03Feb2017_ver2-v2/merged/V08-00-18/merged_ntuple_254.root
p349
aV/nfs-7/userdata/dataTuple/kludge/Run2016B_MuonEG_MINIAOD_03Feb2017_ver2-v2/merged/V08-00-18/merged_ntuple_255.root
p350
aV/nfs-7/userdata/dataTuple/kludge/Run2016B_MuonEG_MINIAOD_03Feb2017_ver2-v2/merged/V08-00-18/merged_ntuple_256.root
p351
aV/nfs-7/userdata/dataTuple/kludge/Run2016B_MuonEG_MINIAOD_03Feb2017_ver2-v2/merged/V08-00-18/merged_ntuple_257.root
p352
aV/nfs-7/userdata/dataTuple/kludge/Run2016B_MuonEG_MINIAOD_03Feb2017_ver2-v2/merged/V08-00-18/merged_ntuple_258.root
p353
aV/nfs-7/userdata/dataTuple/kludge/Run2016B_MuonEG_MINIAOD_03Feb2017_ver2-v2/merged/V08-00-18/merged_ntuple_259.root
p354
aV/nfs-7/userdata/dataTuple/kludge/Run2016B_MuonEG_MINIAOD_03Feb2017_ver2-v2/merged/V08-00-18/merged_ntuple_260.root
p355
aV/nfs-7/userdata/dataTuple/kludge/Run2016B_MuonEG_MINIAOD_03Feb2017_ver2-v2/merged/V08-00-18/merged_ntuple_261.root
p356
aV/nfs-7/userdata/dataTuple/kludge/Run2016B_MuonEG_MINIAOD_03Feb2017_ver2-v2/merged/V08-00-18/merged_ntuple_262.root
p357
aV/nfs-7/userdata/dataTuple/kludge/Run2016B_MuonEG_MINIAOD_03Feb2017_ver2-v2/merged/V08-00-18/merged_ntuple_263.root
p358
aV/nfs-7/userdata/dataTuple/kludge/Run2016B_MuonEG_MINIAOD_03Feb2017_ver2-v2/merged/V08-00-18/merged_ntuple_264.root
p359
aV/nfs-7/userdata/dataTuple/kludge/Run2016B_MuonEG_MINIAOD_03Feb2017_ver2-v2/merged/V08-00-18/merged_ntuple_265.root
p360
aV/nfs-7/userdata/dataTuple/kludge/Run2016B_MuonEG_MINIAOD_03Feb2017_ver2-v2/merged/V08-00-18/merged_ntuple_266.root
p361
aV/nfs-7/userdata/dataTuple/kludge/Run2016B_MuonEG_MINIAOD_03Feb2017_ver2-v2/merged/V08-00-18/merged_ntuple_267.root
p362
aV/nfs-7/userdata/dataTuple/kludge/Run2016B_MuonEG_MINIAOD_03Feb2017_ver2-v2/merged/V08-00-18/merged_ntuple_268.root
p363
aV/nfs-7/userdata/dataTuple/kludge/Run2016B_MuonEG_MINIAOD_03Feb2017_ver2-v2/merged/V08-00-18/merged_ntuple_269.root
p364
aV/nfs-7/userdata/dataTuple/kludge/Run2016B_MuonEG_MINIAOD_03Feb2017_ver2-v2/merged/V08-00-18/merged_ntuple_270.root
p365
aV/nfs-7/userdata/dataTuple/kludge/Run2016B_MuonEG_MINIAOD_03Feb2017_ver2-v2/merged/V08-00-18/merged_ntuple_271.root
p366
aV/nfs-7/userdata/dataTuple/kludge/Run2016B_MuonEG_MINIAOD_03Feb2017_ver2-v2/merged/V08-00-18/merged_ntuple_272.root
p367
asS'executable_script'
p368
S'/home/users/dpgilber/MT2AnalysisNebraskaCMS3/babymaker/batchsubmit//babies/baby_ducks.sh'
p369
ssS'nevents_unmerged'
p370
I0
sS'cmsswver'
p371
g83
sS'postprocessing'
p372
(dp373
sS'nevents_merged'
p374
I0
sS'nevents_DAS'
p375
I0
ssS'misc'
p376
(dp377
S'rootfiles'
p378
(lp379
sS'crab_config'
p380
NsS'last_saved'
p381
I1508238631
sS'handled_more_than_1k'
p382
I00
sS'can_skip_tail'
p383
I00
sS'email_when_done'
p384
I00
sS'update_dis_when_done'
p385
I01
sS'pfx_babies'
p386
S'babies'
p387
sS'logfiles'
p388
(lp389
sS'pfx_pset'
p390
S'pset'
p391
sS'pfx_crab'
p392
S'crab'
p393
ss.