(dp0
S'sample'
p1
(dp2
S'gtag'
p3
NsS'isdata'
p4
I00
sS'dataset'
p5
S'/MET/Run2016F-03Feb2017-v1/CMS3'
p6
sS'pset'
p7
S''
p8
sS'finaldir'
p9
g8
sS'ijob_to_nevents'
p10
(dp11
sS'basedir'
p12
S'/home/users/dpgilber/MT2AnalysisNebraskaCMS3/babymaker/batchsubmit/'
p13
sS'kfact'
p14
NsS'imerged_to_ijob'
p15
(dp16
sS'crab'
p17
(dp18
S'resubmissions'
p19
I0
sS'datetime'
p20
NsS'jobs_left'
p21
(lp22
sS'requestname'
p23
S'MET_Run2016F-03Feb2017-v1'
p24
sS'taskdir'
p25
S'babies/babies_MET_Run2016F-03Feb2017-v1_2016_El50noID'
p26
sS'outputdir'
p27
NsS'jobs_left_tail'
p28
(lp29
ssS'shortname'
p30
g24
sS'xsec'
p31
NsS'type'
p32
S'BABY'
p33
sS'checks'
p34
(dp35
sS'sparms'
p36
(lp37
sS'status'
p38
S'condor'
p39
sS'ijob_to_miniaod'
p40
(dp41
sS'cms3tag'
p42
VCMS3_V08-00-18
p43
sS'specialdir'
p44
g8
sS'user'
p45
S'dpgilber'
p46
sS'efact'
p47
NsS'baby'
p48
(dp49
S'condor_done'
p50
I97
sS'outputdir_pattern'
p51
S'/hadoop/cms/store/user/dpgilber/AutoTwopler_babies/${ANALYSIS}_${BABY_TAG}/${SHORTNAME}/'
p52
sS'user_executable'
p53
S'/home/users/dpgilber/MT2AnalysisNebraskaCMS3/babymaker/batchsubmit/job_input/wrapper_auto.sh'
p54
sS'dataset'
p55
g6
sS'scramarch'
p56
S'slc6_amd64_gcc530'
p57
sS'sweepRoot_script'
p58
S'/home/users/dpgilber/MT2AnalysisNebraskaCMS3/babymaker/batchsubmit//babies/sweepRoot.sh'
p59
sS'total'
p60
I108
sS'finaldir'
p61
S'/hadoop/cms/store/user/dpgilber/AutoTwopler_babies/MT2_2016_El50noID/MET_Run2016F-03Feb2017-v1/'
p62
sS'nevents'
p63
I-1
sS'output_names_nosplit'
p64
S'output.root,skim.root,skim_rphi.root'
p65
sS'imerged'
p66
(lp67
I1
aI2
aI3
aI4
aI5
aI6
aI7
aI8
aI9
aI10
aI11
aI12
aI13
aI14
aI15
aI16
aI17
aI18
aI19
aI20
aI21
aI22
aI23
aI24
aI25
aI26
aI27
aI28
aI29
aI30
aI31
aI32
aI33
aI34
aI35
aI36
aI37
aI38
aI39
aI40
aI41
aI42
aI43
aI44
aI45
aI46
aI47
aI48
aI49
aI50
aI51
aI52
aI53
aI54
aI55
aI56
aI57
aI58
aI59
aI60
aI61
aI62
aI63
aI64
aI65
aI66
aI67
aI68
aI69
aI70
aI71
aI72
aI73
aI74
aI75
aI76
aI77
aI78
aI79
aI80
aI81
aI82
aI83
aI84
aI85
aI86
aI87
aI88
aI89
aI90
aI91
aI92
aI93
aI94
aI95
aI96
aI97
aI98
aI99
aI100
aI101
aI102
aI103
aI104
aI105
aI106
aI107
aI108
asS'sweepRooted'
p68
I97
sS'exe_args'
p69
(lp70
g8
asS'user_package'
p71
S'/home/users/dpgilber/MT2AnalysisNebraskaCMS3/babymaker/batchsubmit/job_input/package.tar.gz'
p72
sS'exe_args_nosplit'
p73
g8
sS'running'
p74
I0
sS'output_names'
p75
(lp76
S'output.root'
p77
aS'skim.root'
p78
aS'skim_rphi.root'
p79
asS'package'
p80
S'/home/users/dpgilber/MT2AnalysisNebraskaCMS3/babymaker/batchsubmit//babies/package.tar.gz'
p81
sS'cmsswver'
p82
S'CMSSW_8_0_21'
p83
sS'have_set_inputs'
p84
I01
sS'analysis'
p85
S'MT2'
p86
sS'merging_script'
p87
S'/home/users/dpgilber/MT2AnalysisNebraskaCMS3/babymaker/batchsubmit//babies/merging_script.sh'
p88
sS'idle'
p89
I108
sS'baby_tag'
p90
S'2016_El50noID'
p91
sS'imerged_swept'
p92
(lp93
I4
aI12
aI88
aI98
aI57
aI67
aI89
aI66
aI29
aI104
aI106
aI101
aI74
aI68
aI92
aI22
aI79
aI65
aI61
aI6
aI64
aI84
aI41
aI10
aI77
aI14
aI18
aI20
aI53
aI52
aI90
aI63
aI28
aI42
aI94
aI31
aI99
aI40
aI82
aI19
aI85
aI24
aI72
aI78
aI32
aI33
aI34
aI100
aI5
aI96
aI75
aI76
aI13
aI46
aI15
aI80
aI108
aI50
aI51
aI95
aI1
aI30
aI25
aI2
aI86
aI55
aI3
aI48
aI83
aI27
aI58
aI43
aI23
aI21
aI45
aI71
aI47
aI16
aI9
aI60
aI102
aI59
aI7
aI54
aI35
aI107
aI39
aI44
aI93
aI97
aI103
aI62
aI37
aI70
aI11
aI36
aI56
asS'input_filenames'
p94
(lp95
V/nfs-7/userdata/dataTuple/kludge/Run2016F_MET_MINIAOD_03Feb2017-v1/merged/V08-00-18/merged_ntuple_1.root
p96
aV/nfs-7/userdata/dataTuple/kludge/Run2016F_MET_MINIAOD_03Feb2017-v1/merged/V08-00-18/merged_ntuple_2.root
p97
aV/nfs-7/userdata/dataTuple/kludge/Run2016F_MET_MINIAOD_03Feb2017-v1/merged/V08-00-18/merged_ntuple_3.root
p98
aV/nfs-7/userdata/dataTuple/kludge/Run2016F_MET_MINIAOD_03Feb2017-v1/merged/V08-00-18/merged_ntuple_4.root
p99
aV/nfs-7/userdata/dataTuple/kludge/Run2016F_MET_MINIAOD_03Feb2017-v1/merged/V08-00-18/merged_ntuple_5.root
p100
aV/nfs-7/userdata/dataTuple/kludge/Run2016F_MET_MINIAOD_03Feb2017-v1/merged/V08-00-18/merged_ntuple_6.root
p101
aV/nfs-7/userdata/dataTuple/kludge/Run2016F_MET_MINIAOD_03Feb2017-v1/merged/V08-00-18/merged_ntuple_7.root
p102
aV/nfs-7/userdata/dataTuple/kludge/Run2016F_MET_MINIAOD_03Feb2017-v1/merged/V08-00-18/merged_ntuple_8.root
p103
aV/nfs-7/userdata/dataTuple/kludge/Run2016F_MET_MINIAOD_03Feb2017-v1/merged/V08-00-18/merged_ntuple_9.root
p104
aV/nfs-7/userdata/dataTuple/kludge/Run2016F_MET_MINIAOD_03Feb2017-v1/merged/V08-00-18/merged_ntuple_10.root
p105
aV/nfs-7/userdata/dataTuple/kludge/Run2016F_MET_MINIAOD_03Feb2017-v1/merged/V08-00-18/merged_ntuple_11.root
p106
aV/nfs-7/userdata/dataTuple/kludge/Run2016F_MET_MINIAOD_03Feb2017-v1/merged/V08-00-18/merged_ntuple_12.root
p107
aV/nfs-7/userdata/dataTuple/kludge/Run2016F_MET_MINIAOD_03Feb2017-v1/merged/V08-00-18/merged_ntuple_13.root
p108
aV/nfs-7/userdata/dataTuple/kludge/Run2016F_MET_MINIAOD_03Feb2017-v1/merged/V08-00-18/merged_ntuple_14.root
p109
aV/nfs-7/userdata/dataTuple/kludge/Run2016F_MET_MINIAOD_03Feb2017-v1/merged/V08-00-18/merged_ntuple_15.root
p110
aV/nfs-7/userdata/dataTuple/kludge/Run2016F_MET_MINIAOD_03Feb2017-v1/merged/V08-00-18/merged_ntuple_16.root
p111
aV/nfs-7/userdata/dataTuple/kludge/Run2016F_MET_MINIAOD_03Feb2017-v1/merged/V08-00-18/merged_ntuple_17.root
p112
aV/nfs-7/userdata/dataTuple/kludge/Run2016F_MET_MINIAOD_03Feb2017-v1/merged/V08-00-18/merged_ntuple_18.root
p113
aV/nfs-7/userdata/dataTuple/kludge/Run2016F_MET_MINIAOD_03Feb2017-v1/merged/V08-00-18/merged_ntuple_19.root
p114
aV/nfs-7/userdata/dataTuple/kludge/Run2016F_MET_MINIAOD_03Feb2017-v1/merged/V08-00-18/merged_ntuple_20.root
p115
aV/nfs-7/userdata/dataTuple/kludge/Run2016F_MET_MINIAOD_03Feb2017-v1/merged/V08-00-18/merged_ntuple_21.root
p116
aV/nfs-7/userdata/dataTuple/kludge/Run2016F_MET_MINIAOD_03Feb2017-v1/merged/V08-00-18/merged_ntuple_22.root
p117
aV/nfs-7/userdata/dataTuple/kludge/Run2016F_MET_MINIAOD_03Feb2017-v1/merged/V08-00-18/merged_ntuple_23.root
p118
aV/nfs-7/userdata/dataTuple/kludge/Run2016F_MET_MINIAOD_03Feb2017-v1/merged/V08-00-18/merged_ntuple_24.root
p119
aV/nfs-7/userdata/dataTuple/kludge/Run2016F_MET_MINIAOD_03Feb2017-v1/merged/V08-00-18/merged_ntuple_25.root
p120
aV/nfs-7/userdata/dataTuple/kludge/Run2016F_MET_MINIAOD_03Feb2017-v1/merged/V08-00-18/merged_ntuple_26.root
p121
aV/nfs-7/userdata/dataTuple/kludge/Run2016F_MET_MINIAOD_03Feb2017-v1/merged/V08-00-18/merged_ntuple_27.root
p122
aV/nfs-7/userdata/dataTuple/kludge/Run2016F_MET_MINIAOD_03Feb2017-v1/merged/V08-00-18/merged_ntuple_28.root
p123
aV/nfs-7/userdata/dataTuple/kludge/Run2016F_MET_MINIAOD_03Feb2017-v1/merged/V08-00-18/merged_ntuple_29.root
p124
aV/nfs-7/userdata/dataTuple/kludge/Run2016F_MET_MINIAOD_03Feb2017-v1/merged/V08-00-18/merged_ntuple_30.root
p125
aV/nfs-7/userdata/dataTuple/kludge/Run2016F_MET_MINIAOD_03Feb2017-v1/merged/V08-00-18/merged_ntuple_31.root
p126
aV/nfs-7/userdata/dataTuple/kludge/Run2016F_MET_MINIAOD_03Feb2017-v1/merged/V08-00-18/merged_ntuple_32.root
p127
aV/nfs-7/userdata/dataTuple/kludge/Run2016F_MET_MINIAOD_03Feb2017-v1/merged/V08-00-18/merged_ntuple_33.root
p128
aV/nfs-7/userdata/dataTuple/kludge/Run2016F_MET_MINIAOD_03Feb2017-v1/merged/V08-00-18/merged_ntuple_34.root
p129
aV/nfs-7/userdata/dataTuple/kludge/Run2016F_MET_MINIAOD_03Feb2017-v1/merged/V08-00-18/merged_ntuple_35.root
p130
aV/nfs-7/userdata/dataTuple/kludge/Run2016F_MET_MINIAOD_03Feb2017-v1/merged/V08-00-18/merged_ntuple_36.root
p131
aV/nfs-7/userdata/dataTuple/kludge/Run2016F_MET_MINIAOD_03Feb2017-v1/merged/V08-00-18/merged_ntuple_37.root
p132
aV/nfs-7/userdata/dataTuple/kludge/Run2016F_MET_MINIAOD_03Feb2017-v1/merged/V08-00-18/merged_ntuple_38.root
p133
aV/nfs-7/userdata/dataTuple/kludge/Run2016F_MET_MINIAOD_03Feb2017-v1/merged/V08-00-18/merged_ntuple_39.root
p134
aV/nfs-7/userdata/dataTuple/kludge/Run2016F_MET_MINIAOD_03Feb2017-v1/merged/V08-00-18/merged_ntuple_40.root
p135
aV/nfs-7/userdata/dataTuple/kludge/Run2016F_MET_MINIAOD_03Feb2017-v1/merged/V08-00-18/merged_ntuple_41.root
p136
aV/nfs-7/userdata/dataTuple/kludge/Run2016F_MET_MINIAOD_03Feb2017-v1/merged/V08-00-18/merged_ntuple_42.root
p137
aV/nfs-7/userdata/dataTuple/kludge/Run2016F_MET_MINIAOD_03Feb2017-v1/merged/V08-00-18/merged_ntuple_43.root
p138
aV/nfs-7/userdata/dataTuple/kludge/Run2016F_MET_MINIAOD_03Feb2017-v1/merged/V08-00-18/merged_ntuple_44.root
p139
aV/nfs-7/userdata/dataTuple/kludge/Run2016F_MET_MINIAOD_03Feb2017-v1/merged/V08-00-18/merged_ntuple_45.root
p140
aV/nfs-7/userdata/dataTuple/kludge/Run2016F_MET_MINIAOD_03Feb2017-v1/merged/V08-00-18/merged_ntuple_46.root
p141
aV/nfs-7/userdata/dataTuple/kludge/Run2016F_MET_MINIAOD_03Feb2017-v1/merged/V08-00-18/merged_ntuple_47.root
p142
aV/nfs-7/userdata/dataTuple/kludge/Run2016F_MET_MINIAOD_03Feb2017-v1/merged/V08-00-18/merged_ntuple_48.root
p143
aV/nfs-7/userdata/dataTuple/kludge/Run2016F_MET_MINIAOD_03Feb2017-v1/merged/V08-00-18/merged_ntuple_49.root
p144
aV/nfs-7/userdata/dataTuple/kludge/Run2016F_MET_MINIAOD_03Feb2017-v1/merged/V08-00-18/merged_ntuple_50.root
p145
aV/nfs-7/userdata/dataTuple/kludge/Run2016F_MET_MINIAOD_03Feb2017-v1/merged/V08-00-18/merged_ntuple_51.root
p146
aV/nfs-7/userdata/dataTuple/kludge/Run2016F_MET_MINIAOD_03Feb2017-v1/merged/V08-00-18/merged_ntuple_52.root
p147
aV/nfs-7/userdata/dataTuple/kludge/Run2016F_MET_MINIAOD_03Feb2017-v1/merged/V08-00-18/merged_ntuple_53.root
p148
aV/nfs-7/userdata/dataTuple/kludge/Run2016F_MET_MINIAOD_03Feb2017-v1/merged/V08-00-18/merged_ntuple_54.root
p149
aV/nfs-7/userdata/dataTuple/kludge/Run2016F_MET_MINIAOD_03Feb2017-v1/merged/V08-00-18/merged_ntuple_55.root
p150
aV/nfs-7/userdata/dataTuple/kludge/Run2016F_MET_MINIAOD_03Feb2017-v1/merged/V08-00-18/merged_ntuple_56.root
p151
aV/nfs-7/userdata/dataTuple/kludge/Run2016F_MET_MINIAOD_03Feb2017-v1/merged/V08-00-18/merged_ntuple_57.root
p152
aV/nfs-7/userdata/dataTuple/kludge/Run2016F_MET_MINIAOD_03Feb2017-v1/merged/V08-00-18/merged_ntuple_58.root
p153
aV/nfs-7/userdata/dataTuple/kludge/Run2016F_MET_MINIAOD_03Feb2017-v1/merged/V08-00-18/merged_ntuple_59.root
p154
aV/nfs-7/userdata/dataTuple/kludge/Run2016F_MET_MINIAOD_03Feb2017-v1/merged/V08-00-18/merged_ntuple_60.root
p155
aV/nfs-7/userdata/dataTuple/kludge/Run2016F_MET_MINIAOD_03Feb2017-v1/merged/V08-00-18/merged_ntuple_61.root
p156
aV/nfs-7/userdata/dataTuple/kludge/Run2016F_MET_MINIAOD_03Feb2017-v1/merged/V08-00-18/merged_ntuple_62.root
p157
aV/nfs-7/userdata/dataTuple/kludge/Run2016F_MET_MINIAOD_03Feb2017-v1/merged/V08-00-18/merged_ntuple_63.root
p158
aV/nfs-7/userdata/dataTuple/kludge/Run2016F_MET_MINIAOD_03Feb2017-v1/merged/V08-00-18/merged_ntuple_64.root
p159
aV/nfs-7/userdata/dataTuple/kludge/Run2016F_MET_MINIAOD_03Feb2017-v1/merged/V08-00-18/merged_ntuple_65.root
p160
aV/nfs-7/userdata/dataTuple/kludge/Run2016F_MET_MINIAOD_03Feb2017-v1/merged/V08-00-18/merged_ntuple_66.root
p161
aV/nfs-7/userdata/dataTuple/kludge/Run2016F_MET_MINIAOD_03Feb2017-v1/merged/V08-00-18/merged_ntuple_67.root
p162
aV/nfs-7/userdata/dataTuple/kludge/Run2016F_MET_MINIAOD_03Feb2017-v1/merged/V08-00-18/merged_ntuple_68.root
p163
aV/nfs-7/userdata/dataTuple/kludge/Run2016F_MET_MINIAOD_03Feb2017-v1/merged/V08-00-18/merged_ntuple_69.root
p164
aV/nfs-7/userdata/dataTuple/kludge/Run2016F_MET_MINIAOD_03Feb2017-v1/merged/V08-00-18/merged_ntuple_70.root
p165
aV/nfs-7/userdata/dataTuple/kludge/Run2016F_MET_MINIAOD_03Feb2017-v1/merged/V08-00-18/merged_ntuple_71.root
p166
aV/nfs-7/userdata/dataTuple/kludge/Run2016F_MET_MINIAOD_03Feb2017-v1/merged/V08-00-18/merged_ntuple_72.root
p167
aV/nfs-7/userdata/dataTuple/kludge/Run2016F_MET_MINIAOD_03Feb2017-v1/merged/V08-00-18/merged_ntuple_73.root
p168
aV/nfs-7/userdata/dataTuple/kludge/Run2016F_MET_MINIAOD_03Feb2017-v1/merged/V08-00-18/merged_ntuple_74.root
p169
aV/nfs-7/userdata/dataTuple/kludge/Run2016F_MET_MINIAOD_03Feb2017-v1/merged/V08-00-18/merged_ntuple_75.root
p170
aV/nfs-7/userdata/dataTuple/kludge/Run2016F_MET_MINIAOD_03Feb2017-v1/merged/V08-00-18/merged_ntuple_76.root
p171
aV/nfs-7/userdata/dataTuple/kludge/Run2016F_MET_MINIAOD_03Feb2017-v1/merged/V08-00-18/merged_ntuple_77.root
p172
aV/nfs-7/userdata/dataTuple/kludge/Run2016F_MET_MINIAOD_03Feb2017-v1/merged/V08-00-18/merged_ntuple_78.root
p173
aV/nfs-7/userdata/dataTuple/kludge/Run2016F_MET_MINIAOD_03Feb2017-v1/merged/V08-00-18/merged_ntuple_79.root
p174
aV/nfs-7/userdata/dataTuple/kludge/Run2016F_MET_MINIAOD_03Feb2017-v1/merged/V08-00-18/merged_ntuple_80.root
p175
aV/nfs-7/userdata/dataTuple/kludge/Run2016F_MET_MINIAOD_03Feb2017-v1/merged/V08-00-18/merged_ntuple_81.root
p176
aV/nfs-7/userdata/dataTuple/kludge/Run2016F_MET_MINIAOD_03Feb2017-v1/merged/V08-00-18/merged_ntuple_82.root
p177
aV/nfs-7/userdata/dataTuple/kludge/Run2016F_MET_MINIAOD_03Feb2017-v1/merged/V08-00-18/merged_ntuple_83.root
p178
aV/nfs-7/userdata/dataTuple/kludge/Run2016F_MET_MINIAOD_03Feb2017-v1/merged/V08-00-18/merged_ntuple_84.root
p179
aV/nfs-7/userdata/dataTuple/kludge/Run2016F_MET_MINIAOD_03Feb2017-v1/merged/V08-00-18/merged_ntuple_85.root
p180
aV/nfs-7/userdata/dataTuple/kludge/Run2016F_MET_MINIAOD_03Feb2017-v1/merged/V08-00-18/merged_ntuple_86.root
p181
aV/nfs-7/userdata/dataTuple/kludge/Run2016F_MET_MINIAOD_03Feb2017-v1/merged/V08-00-18/merged_ntuple_87.root
p182
aV/nfs-7/userdata/dataTuple/kludge/Run2016F_MET_MINIAOD_03Feb2017-v1/merged/V08-00-18/merged_ntuple_88.root
p183
aV/nfs-7/userdata/dataTuple/kludge/Run2016F_MET_MINIAOD_03Feb2017-v1/merged/V08-00-18/merged_ntuple_89.root
p184
aV/nfs-7/userdata/dataTuple/kludge/Run2016F_MET_MINIAOD_03Feb2017-v1/merged/V08-00-18/merged_ntuple_90.root
p185
aV/nfs-7/userdata/dataTuple/kludge/Run2016F_MET_MINIAOD_03Feb2017-v1/merged/V08-00-18/merged_ntuple_91.root
p186
aV/nfs-7/userdata/dataTuple/kludge/Run2016F_MET_MINIAOD_03Feb2017-v1/merged/V08-00-18/merged_ntuple_92.root
p187
aV/nfs-7/userdata/dataTuple/kludge/Run2016F_MET_MINIAOD_03Feb2017-v1/merged/V08-00-18/merged_ntuple_93.root
p188
aV/nfs-7/userdata/dataTuple/kludge/Run2016F_MET_MINIAOD_03Feb2017-v1/merged/V08-00-18/merged_ntuple_94.root
p189
aV/nfs-7/userdata/dataTuple/kludge/Run2016F_MET_MINIAOD_03Feb2017-v1/merged/V08-00-18/merged_ntuple_95.root
p190
aV/nfs-7/userdata/dataTuple/kludge/Run2016F_MET_MINIAOD_03Feb2017-v1/merged/V08-00-18/merged_ntuple_96.root
p191
aV/nfs-7/userdata/dataTuple/kludge/Run2016F_MET_MINIAOD_03Feb2017-v1/merged/V08-00-18/merged_ntuple_97.root
p192
aV/nfs-7/userdata/dataTuple/kludge/Run2016F_MET_MINIAOD_03Feb2017-v1/merged/V08-00-18/merged_ntuple_98.root
p193
aV/nfs-7/userdata/dataTuple/kludge/Run2016F_MET_MINIAOD_03Feb2017-v1/merged/V08-00-18/merged_ntuple_99.root
p194
aV/nfs-7/userdata/dataTuple/kludge/Run2016F_MET_MINIAOD_03Feb2017-v1/merged/V08-00-18/merged_ntuple_100.root
p195
aV/nfs-7/userdata/dataTuple/kludge/Run2016F_MET_MINIAOD_03Feb2017-v1/merged/V08-00-18/merged_ntuple_101.root
p196
aV/nfs-7/userdata/dataTuple/kludge/Run2016F_MET_MINIAOD_03Feb2017-v1/merged/V08-00-18/merged_ntuple_102.root
p197
aV/nfs-7/userdata/dataTuple/kludge/Run2016F_MET_MINIAOD_03Feb2017-v1/merged/V08-00-18/merged_ntuple_103.root
p198
aV/nfs-7/userdata/dataTuple/kludge/Run2016F_MET_MINIAOD_03Feb2017-v1/merged/V08-00-18/merged_ntuple_104.root
p199
aV/nfs-7/userdata/dataTuple/kludge/Run2016F_MET_MINIAOD_03Feb2017-v1/merged/V08-00-18/merged_ntuple_105.root
p200
aV/nfs-7/userdata/dataTuple/kludge/Run2016F_MET_MINIAOD_03Feb2017-v1/merged/V08-00-18/merged_ntuple_106.root
p201
aV/nfs-7/userdata/dataTuple/kludge/Run2016F_MET_MINIAOD_03Feb2017-v1/merged/V08-00-18/merged_ntuple_107.root
p202
aV/nfs-7/userdata/dataTuple/kludge/Run2016F_MET_MINIAOD_03Feb2017-v1/merged/V08-00-18/merged_ntuple_108.root
p203
asS'executable_script'
p204
S'/home/users/dpgilber/MT2AnalysisNebraskaCMS3/babymaker/batchsubmit//babies/baby_ducks.sh'
p205
ssS'nevents_unmerged'
p206
I0
sS'cmsswver'
p207
g83
sS'postprocessing'
p208
(dp209
sS'nevents_merged'
p210
I0
sS'nevents_DAS'
p211
I0
ssS'misc'
p212
(dp213
S'rootfiles'
p214
(lp215
sS'crab_config'
p216
NsS'last_saved'
p217
I1508244063
sS'handled_more_than_1k'
p218
I00
sS'can_skip_tail'
p219
I00
sS'email_when_done'
p220
I00
sS'update_dis_when_done'
p221
I01
sS'pfx_babies'
p222
S'babies'
p223
sS'logfiles'
p224
(lp225
sS'pfx_pset'
p226
S'pset'
p227
sS'pfx_crab'
p228
S'crab'
p229
ss.