(dp0
S'sample'
p1
(dp2
S'gtag'
p3
NsS'isdata'
p4
I00
sS'dataset'
p5
S'/SingleElectron/Run2016H-03Feb2017_ver3-v1/CMS3'
p6
sS'pset'
p7
S''
p8
sS'finaldir'
p9
g8
sS'ijob_to_nevents'
p10
(dp11
sS'basedir'
p12
S'/home/users/dpgilber/MT2AnalysisNebraskaCMS3/babymaker/batchsubmit/'
p13
sS'kfact'
p14
NsS'imerged_to_ijob'
p15
(dp16
sS'crab'
p17
(dp18
S'resubmissions'
p19
I0
sS'datetime'
p20
NsS'jobs_left'
p21
(lp22
sS'requestname'
p23
S'SingleElectron_Run2016H-03Feb2017_ver3-v1'
p24
sS'taskdir'
p25
S'babies/babies_SingleElectron_Run2016H-03Feb2017_ver3-v1_2016_El50noID'
p26
sS'outputdir'
p27
NsS'jobs_left_tail'
p28
(lp29
ssS'shortname'
p30
g24
sS'xsec'
p31
NsS'type'
p32
S'BABY'
p33
sS'checks'
p34
(dp35
sS'sparms'
p36
(lp37
sS'status'
p38
S'condor'
p39
sS'ijob_to_miniaod'
p40
(dp41
sS'cms3tag'
p42
VCMS3_V08-00-18
p43
sS'specialdir'
p44
g8
sS'user'
p45
S'dpgilber'
p46
sS'efact'
p47
NsS'baby'
p48
(dp49
S'condor_done'
p50
I15
sS'sweepRoot_script'
p51
S'/home/users/dpgilber/MT2AnalysisNebraskaCMS3/babymaker/batchsubmit//babies/sweepRoot.sh'
p52
sS'user_executable'
p53
S'/home/users/dpgilber/MT2AnalysisNebraskaCMS3/babymaker/batchsubmit/job_input/wrapper_auto.sh'
p54
sS'dataset'
p55
g6
sS'scramarch'
p56
S'slc6_amd64_gcc530'
p57
sS'outputdir_pattern'
p58
S'/hadoop/cms/store/user/dpgilber/AutoTwopler_babies/${ANALYSIS}_${BABY_TAG}/${SHORTNAME}/'
p59
sS'total'
p60
I27
sS'finaldir'
p61
S'/hadoop/cms/store/user/dpgilber/AutoTwopler_babies/MT2_2016_El50noID/SingleElectron_Run2016H-03Feb2017_ver3-v1/'
p62
sS'merging_script'
p63
S'/home/users/dpgilber/MT2AnalysisNebraskaCMS3/babymaker/batchsubmit//babies/merging_script.sh'
p64
sS'idle'
p65
I16
sS'output_names_nosplit'
p66
S'output.root,skim.root,skim_rphi.root'
p67
sS'imerged'
p68
(lp69
I1
aI2
aI3
aI4
aI5
aI6
aI7
aI8
aI9
aI10
aI11
aI12
aI13
aI14
aI15
aI16
aI17
aI18
aI19
aI20
aI21
aI22
aI23
aI24
aI25
aI26
aI27
asS'sweepRooted'
p70
I15
sS'exe_args'
p71
(lp72
g8
asS'user_package'
p73
S'/home/users/dpgilber/MT2AnalysisNebraskaCMS3/babymaker/batchsubmit/job_input/package.tar.gz'
p74
sS'exe_args_nosplit'
p75
g8
sS'running'
p76
I11
sS'output_names'
p77
(lp78
S'output.root'
p79
aS'skim.root'
p80
aS'skim_rphi.root'
p81
asS'package'
p82
S'/home/users/dpgilber/MT2AnalysisNebraskaCMS3/babymaker/batchsubmit//babies/package.tar.gz'
p83
sS'cmsswver'
p84
S'CMSSW_8_0_21'
p85
sS'have_set_inputs'
p86
I01
sS'analysis'
p87
S'MT2'
p88
sS'executable_script'
p89
S'/home/users/dpgilber/MT2AnalysisNebraskaCMS3/babymaker/batchsubmit//babies/baby_ducks.sh'
p90
sS'nevents'
p91
I-1
sS'baby_tag'
p92
S'2016_El50noID'
p93
sS'imerged_swept'
p94
(lp95
I12
aI11
aI8
aI13
aI2
aI3
aI14
aI15
aI5
aI20
aI10
aI17
aI21
aI18
aI23
asS'input_filenames'
p96
(lp97
V/nfs-7/userdata/dataTuple/kludge/Run2016H_SingleElectron_MINIAOD_03Feb2017_ver3-v1/merged/V08-00-18/merged_ntuple_1.root
p98
aV/nfs-7/userdata/dataTuple/kludge/Run2016H_SingleElectron_MINIAOD_03Feb2017_ver3-v1/merged/V08-00-18/merged_ntuple_2.root
p99
aV/nfs-7/userdata/dataTuple/kludge/Run2016H_SingleElectron_MINIAOD_03Feb2017_ver3-v1/merged/V08-00-18/merged_ntuple_3.root
p100
aV/nfs-7/userdata/dataTuple/kludge/Run2016H_SingleElectron_MINIAOD_03Feb2017_ver3-v1/merged/V08-00-18/merged_ntuple_4.root
p101
aV/nfs-7/userdata/dataTuple/kludge/Run2016H_SingleElectron_MINIAOD_03Feb2017_ver3-v1/merged/V08-00-18/merged_ntuple_5.root
p102
aV/nfs-7/userdata/dataTuple/kludge/Run2016H_SingleElectron_MINIAOD_03Feb2017_ver3-v1/merged/V08-00-18/merged_ntuple_6.root
p103
aV/nfs-7/userdata/dataTuple/kludge/Run2016H_SingleElectron_MINIAOD_03Feb2017_ver3-v1/merged/V08-00-18/merged_ntuple_7.root
p104
aV/nfs-7/userdata/dataTuple/kludge/Run2016H_SingleElectron_MINIAOD_03Feb2017_ver3-v1/merged/V08-00-18/merged_ntuple_8.root
p105
aV/nfs-7/userdata/dataTuple/kludge/Run2016H_SingleElectron_MINIAOD_03Feb2017_ver3-v1/merged/V08-00-18/merged_ntuple_9.root
p106
aV/nfs-7/userdata/dataTuple/kludge/Run2016H_SingleElectron_MINIAOD_03Feb2017_ver3-v1/merged/V08-00-18/merged_ntuple_10.root
p107
aV/nfs-7/userdata/dataTuple/kludge/Run2016H_SingleElectron_MINIAOD_03Feb2017_ver3-v1/merged/V08-00-18/merged_ntuple_11.root
p108
aV/nfs-7/userdata/dataTuple/kludge/Run2016H_SingleElectron_MINIAOD_03Feb2017_ver3-v1/merged/V08-00-18/merged_ntuple_12.root
p109
aV/nfs-7/userdata/dataTuple/kludge/Run2016H_SingleElectron_MINIAOD_03Feb2017_ver3-v1/merged/V08-00-18/merged_ntuple_13.root
p110
aV/nfs-7/userdata/dataTuple/kludge/Run2016H_SingleElectron_MINIAOD_03Feb2017_ver3-v1/merged/V08-00-18/merged_ntuple_14.root
p111
aV/nfs-7/userdata/dataTuple/kludge/Run2016H_SingleElectron_MINIAOD_03Feb2017_ver3-v1/merged/V08-00-18/merged_ntuple_15.root
p112
aV/nfs-7/userdata/dataTuple/kludge/Run2016H_SingleElectron_MINIAOD_03Feb2017_ver3-v1/merged/V08-00-18/merged_ntuple_16.root
p113
aV/nfs-7/userdata/dataTuple/kludge/Run2016H_SingleElectron_MINIAOD_03Feb2017_ver3-v1/merged/V08-00-18/merged_ntuple_17.root
p114
aV/nfs-7/userdata/dataTuple/kludge/Run2016H_SingleElectron_MINIAOD_03Feb2017_ver3-v1/merged/V08-00-18/merged_ntuple_18.root
p115
aV/nfs-7/userdata/dataTuple/kludge/Run2016H_SingleElectron_MINIAOD_03Feb2017_ver3-v1/merged/V08-00-18/merged_ntuple_19.root
p116
aV/nfs-7/userdata/dataTuple/kludge/Run2016H_SingleElectron_MINIAOD_03Feb2017_ver3-v1/merged/V08-00-18/merged_ntuple_20.root
p117
aV/nfs-7/userdata/dataTuple/kludge/Run2016H_SingleElectron_MINIAOD_03Feb2017_ver3-v1/merged/V08-00-18/merged_ntuple_21.root
p118
aV/nfs-7/userdata/dataTuple/kludge/Run2016H_SingleElectron_MINIAOD_03Feb2017_ver3-v1/merged/V08-00-18/merged_ntuple_22.root
p119
aV/nfs-7/userdata/dataTuple/kludge/Run2016H_SingleElectron_MINIAOD_03Feb2017_ver3-v1/merged/V08-00-18/merged_ntuple_23.root
p120
aV/nfs-7/userdata/dataTuple/kludge/Run2016H_SingleElectron_MINIAOD_03Feb2017_ver3-v1/merged/V08-00-18/merged_ntuple_24.root
p121
aV/nfs-7/userdata/dataTuple/kludge/Run2016H_SingleElectron_MINIAOD_03Feb2017_ver3-v1/merged/V08-00-18/merged_ntuple_25.root
p122
aV/nfs-7/userdata/dataTuple/kludge/Run2016H_SingleElectron_MINIAOD_03Feb2017_ver3-v1/merged/V08-00-18/merged_ntuple_26.root
p123
aV/nfs-7/userdata/dataTuple/kludge/Run2016H_SingleElectron_MINIAOD_03Feb2017_ver3-v1/merged/V08-00-18/merged_ntuple_27.root
p124
assS'nevents_unmerged'
p125
I0
sS'cmsswver'
p126
g85
sS'postprocessing'
p127
(dp128
sS'nevents_merged'
p129
I0
sS'nevents_DAS'
p130
I0
ssS'misc'
p131
(dp132
S'rootfiles'
p133
(lp134
sS'crab_config'
p135
NsS'last_saved'
p136
I1508242262
sS'handled_more_than_1k'
p137
I00
sS'can_skip_tail'
p138
I00
sS'email_when_done'
p139
I00
sS'update_dis_when_done'
p140
I01
sS'pfx_babies'
p141
S'babies'
p142
sS'logfiles'
p143
(lp144
sS'pfx_pset'
p145
S'pset'
p146
sS'pfx_crab'
p147
S'crab'
p148
ss.