(dp0
S'sample'
p1
(dp2
S'gtag'
p3
NsS'isdata'
p4
I00
sS'dataset'
p5
S'/SinglePhoton/Run2016C-03Feb2017-v1/MINIAOD'
p6
sS'pset'
p7
S''
p8
sS'finaldir'
p9
g8
sS'ijob_to_nevents'
p10
(dp11
sS'basedir'
p12
S'/home/users/dpgilber/MT2AnalysisNebraskaCMS3/babymaker/batchsubmit/'
p13
sS'kfact'
p14
NsS'imerged_to_ijob'
p15
(dp16
sS'crab'
p17
(dp18
S'resubmissions'
p19
I0
sS'datetime'
p20
NsS'jobs_left'
p21
(lp22
sS'requestname'
p23
S'SinglePhoton_Run2016C-03Feb2017-v1'
p24
sS'taskdir'
p25
S'babies/babies_SinglePhoton_Run2016C-03Feb2017-v1_V_Nebraska_El50noID'
p26
sS'outputdir'
p27
NsS'jobs_left_tail'
p28
(lp29
ssS'shortname'
p30
g24
sS'xsec'
p31
NsS'type'
p32
S'BABY'
p33
sS'checks'
p34
(dp35
sS'sparms'
p36
(lp37
sS'status'
p38
S'condor'
p39
sS'ijob_to_miniaod'
p40
(dp41
sS'cms3tag'
p42
VCMS3_V08-00-18
p43
sS'specialdir'
p44
g8
sS'user'
p45
S'dpgilber'
p46
sS'efact'
p47
NsS'baby'
p48
(dp49
S'condor_done'
p50
I0
sS'outputdir_pattern'
p51
S'/hadoop/cms/store/user/dpgilber/AutoTwopler_babies/${ANALYSIS}_${BABY_TAG}/${SHORTNAME}/'
p52
sS'user_executable'
p53
S'/home/users/dpgilber/MT2AnalysisNebraskaCMS3/babymaker/batchsubmit/job_input/wrapper_auto.sh'
p54
sg5
g6
sS'scramarch'
p55
S'slc6_amd64_gcc530'
p56
sS'sweepRoot_script'
p57
S'/home/users/dpgilber/MT2AnalysisNebraskaCMS3/babymaker/batchsubmit//babies/sweepRoot.sh'
p58
sS'executable_script'
p59
S'/home/users/dpgilber/MT2AnalysisNebraskaCMS3/babymaker/batchsubmit//babies/baby_ducks.sh'
p60
sg9
S'/hadoop/cms/store/user/dpgilber/AutoTwopler_babies/MT2_V_Nebraska_El50noID/SinglePhoton_Run2016C-03Feb2017-v1/'
p61
sS'total'
p62
I188
sS'nevents'
p63
I-1
sS'output_names_nosplit'
p64
S'output.root,skim.root,skim_rphi.root'
p65
sS'imerged'
p66
(lp67
I1
aI2
aI3
aI4
aI5
aI6
aI7
aI8
aI9
aI10
aI11
aI12
aI13
aI14
aI15
aI16
aI17
aI18
aI19
aI20
aI21
aI22
aI23
aI24
aI25
aI26
aI27
aI28
aI29
aI30
aI31
aI32
aI33
aI34
aI35
aI36
aI37
aI38
aI39
aI40
aI41
aI42
aI43
aI44
aI45
aI46
aI47
aI48
aI49
aI50
aI51
aI52
aI53
aI54
aI55
aI56
aI57
aI58
aI59
aI60
aI61
aI62
aI63
aI64
aI65
aI66
aI67
aI68
aI69
aI70
aI71
aI72
aI73
aI74
aI75
aI76
aI77
aI78
aI79
aI80
aI81
aI82
aI83
aI84
aI85
aI86
aI87
aI88
aI89
aI90
aI91
aI92
aI93
aI94
aI95
aI96
aI97
aI98
aI99
aI100
aI101
aI102
aI103
aI104
aI105
aI106
aI107
aI108
aI109
aI110
aI111
aI112
aI113
aI114
aI115
aI116
aI117
aI118
aI119
aI120
aI121
aI122
aI123
aI124
aI125
aI126
aI127
aI128
aI129
aI130
aI131
aI132
aI133
aI134
aI135
aI136
aI137
aI138
aI139
aI140
aI141
aI142
aI143
aI144
aI145
aI146
aI147
aI148
aI149
aI150
aI151
aI152
aI153
aI154
aI155
aI156
aI157
aI158
aI159
aI160
aI161
aI162
aI163
aI164
aI165
aI166
aI167
aI168
aI169
aI170
aI171
aI172
aI173
aI174
aI175
aI176
aI177
aI178
aI179
aI180
aI181
aI182
aI183
aI184
aI185
aI186
aI187
aI188
asS'sweepRooted'
p68
I0
sS'exe_args'
p69
(lp70
g8
asS'user_package'
p71
S'/home/users/dpgilber/MT2AnalysisNebraskaCMS3/babymaker/batchsubmit/job_input/package.tar.gz'
p72
sS'exe_args_nosplit'
p73
g8
sS'running'
p74
I188
sS'output_names'
p75
(lp76
S'output.root'
p77
aS'skim.root'
p78
aS'skim_rphi.root'
p79
asS'package'
p80
S'/home/users/dpgilber/MT2AnalysisNebraskaCMS3/babymaker/batchsubmit//babies/package.tar.gz'
p81
sS'cmsswver'
p82
S'CMSSW_8_0_21'
p83
sS'have_set_inputs'
p84
I01
sS'analysis'
p85
S'MT2'
p86
sS'merging_script'
p87
S'/home/users/dpgilber/MT2AnalysisNebraskaCMS3/babymaker/batchsubmit//babies/merging_script.sh'
p88
sS'idle'
p89
I0
sS'baby_tag'
p90
S'V_Nebraska_El50noID'
p91
sS'imerged_swept'
p92
(lp93
sS'input_filenames'
p94
(lp95
V/store/group/snt/run2_data/Run2016C_SinglePhoton_MINIAOD_03Feb2017-v1/merged/V08-00-18/merged_ntuple_1.root
p96
aV/store/group/snt/run2_data/Run2016C_SinglePhoton_MINIAOD_03Feb2017-v1/merged/V08-00-18/merged_ntuple_2.root
p97
aV/store/group/snt/run2_data/Run2016C_SinglePhoton_MINIAOD_03Feb2017-v1/merged/V08-00-18/merged_ntuple_3.root
p98
aV/store/group/snt/run2_data/Run2016C_SinglePhoton_MINIAOD_03Feb2017-v1/merged/V08-00-18/merged_ntuple_4.root
p99
aV/store/group/snt/run2_data/Run2016C_SinglePhoton_MINIAOD_03Feb2017-v1/merged/V08-00-18/merged_ntuple_5.root
p100
aV/store/group/snt/run2_data/Run2016C_SinglePhoton_MINIAOD_03Feb2017-v1/merged/V08-00-18/merged_ntuple_6.root
p101
aV/store/group/snt/run2_data/Run2016C_SinglePhoton_MINIAOD_03Feb2017-v1/merged/V08-00-18/merged_ntuple_7.root
p102
aV/store/group/snt/run2_data/Run2016C_SinglePhoton_MINIAOD_03Feb2017-v1/merged/V08-00-18/merged_ntuple_8.root
p103
aV/store/group/snt/run2_data/Run2016C_SinglePhoton_MINIAOD_03Feb2017-v1/merged/V08-00-18/merged_ntuple_9.root
p104
aV/store/group/snt/run2_data/Run2016C_SinglePhoton_MINIAOD_03Feb2017-v1/merged/V08-00-18/merged_ntuple_10.root
p105
aV/store/group/snt/run2_data/Run2016C_SinglePhoton_MINIAOD_03Feb2017-v1/merged/V08-00-18/merged_ntuple_11.root
p106
aV/store/group/snt/run2_data/Run2016C_SinglePhoton_MINIAOD_03Feb2017-v1/merged/V08-00-18/merged_ntuple_12.root
p107
aV/store/group/snt/run2_data/Run2016C_SinglePhoton_MINIAOD_03Feb2017-v1/merged/V08-00-18/merged_ntuple_13.root
p108
aV/store/group/snt/run2_data/Run2016C_SinglePhoton_MINIAOD_03Feb2017-v1/merged/V08-00-18/merged_ntuple_14.root
p109
aV/store/group/snt/run2_data/Run2016C_SinglePhoton_MINIAOD_03Feb2017-v1/merged/V08-00-18/merged_ntuple_15.root
p110
aV/store/group/snt/run2_data/Run2016C_SinglePhoton_MINIAOD_03Feb2017-v1/merged/V08-00-18/merged_ntuple_16.root
p111
aV/store/group/snt/run2_data/Run2016C_SinglePhoton_MINIAOD_03Feb2017-v1/merged/V08-00-18/merged_ntuple_17.root
p112
aV/store/group/snt/run2_data/Run2016C_SinglePhoton_MINIAOD_03Feb2017-v1/merged/V08-00-18/merged_ntuple_18.root
p113
aV/store/group/snt/run2_data/Run2016C_SinglePhoton_MINIAOD_03Feb2017-v1/merged/V08-00-18/merged_ntuple_19.root
p114
aV/store/group/snt/run2_data/Run2016C_SinglePhoton_MINIAOD_03Feb2017-v1/merged/V08-00-18/merged_ntuple_20.root
p115
aV/store/group/snt/run2_data/Run2016C_SinglePhoton_MINIAOD_03Feb2017-v1/merged/V08-00-18/merged_ntuple_21.root
p116
aV/store/group/snt/run2_data/Run2016C_SinglePhoton_MINIAOD_03Feb2017-v1/merged/V08-00-18/merged_ntuple_22.root
p117
aV/store/group/snt/run2_data/Run2016C_SinglePhoton_MINIAOD_03Feb2017-v1/merged/V08-00-18/merged_ntuple_23.root
p118
aV/store/group/snt/run2_data/Run2016C_SinglePhoton_MINIAOD_03Feb2017-v1/merged/V08-00-18/merged_ntuple_24.root
p119
aV/store/group/snt/run2_data/Run2016C_SinglePhoton_MINIAOD_03Feb2017-v1/merged/V08-00-18/merged_ntuple_25.root
p120
aV/store/group/snt/run2_data/Run2016C_SinglePhoton_MINIAOD_03Feb2017-v1/merged/V08-00-18/merged_ntuple_26.root
p121
aV/store/group/snt/run2_data/Run2016C_SinglePhoton_MINIAOD_03Feb2017-v1/merged/V08-00-18/merged_ntuple_27.root
p122
aV/store/group/snt/run2_data/Run2016C_SinglePhoton_MINIAOD_03Feb2017-v1/merged/V08-00-18/merged_ntuple_28.root
p123
aV/store/group/snt/run2_data/Run2016C_SinglePhoton_MINIAOD_03Feb2017-v1/merged/V08-00-18/merged_ntuple_29.root
p124
aV/store/group/snt/run2_data/Run2016C_SinglePhoton_MINIAOD_03Feb2017-v1/merged/V08-00-18/merged_ntuple_30.root
p125
aV/store/group/snt/run2_data/Run2016C_SinglePhoton_MINIAOD_03Feb2017-v1/merged/V08-00-18/merged_ntuple_31.root
p126
aV/store/group/snt/run2_data/Run2016C_SinglePhoton_MINIAOD_03Feb2017-v1/merged/V08-00-18/merged_ntuple_32.root
p127
aV/store/group/snt/run2_data/Run2016C_SinglePhoton_MINIAOD_03Feb2017-v1/merged/V08-00-18/merged_ntuple_33.root
p128
aV/store/group/snt/run2_data/Run2016C_SinglePhoton_MINIAOD_03Feb2017-v1/merged/V08-00-18/merged_ntuple_34.root
p129
aV/store/group/snt/run2_data/Run2016C_SinglePhoton_MINIAOD_03Feb2017-v1/merged/V08-00-18/merged_ntuple_35.root
p130
aV/store/group/snt/run2_data/Run2016C_SinglePhoton_MINIAOD_03Feb2017-v1/merged/V08-00-18/merged_ntuple_36.root
p131
aV/store/group/snt/run2_data/Run2016C_SinglePhoton_MINIAOD_03Feb2017-v1/merged/V08-00-18/merged_ntuple_37.root
p132
aV/store/group/snt/run2_data/Run2016C_SinglePhoton_MINIAOD_03Feb2017-v1/merged/V08-00-18/merged_ntuple_38.root
p133
aV/store/group/snt/run2_data/Run2016C_SinglePhoton_MINIAOD_03Feb2017-v1/merged/V08-00-18/merged_ntuple_39.root
p134
aV/store/group/snt/run2_data/Run2016C_SinglePhoton_MINIAOD_03Feb2017-v1/merged/V08-00-18/merged_ntuple_40.root
p135
aV/store/group/snt/run2_data/Run2016C_SinglePhoton_MINIAOD_03Feb2017-v1/merged/V08-00-18/merged_ntuple_41.root
p136
aV/store/group/snt/run2_data/Run2016C_SinglePhoton_MINIAOD_03Feb2017-v1/merged/V08-00-18/merged_ntuple_42.root
p137
aV/store/group/snt/run2_data/Run2016C_SinglePhoton_MINIAOD_03Feb2017-v1/merged/V08-00-18/merged_ntuple_43.root
p138
aV/store/group/snt/run2_data/Run2016C_SinglePhoton_MINIAOD_03Feb2017-v1/merged/V08-00-18/merged_ntuple_44.root
p139
aV/store/group/snt/run2_data/Run2016C_SinglePhoton_MINIAOD_03Feb2017-v1/merged/V08-00-18/merged_ntuple_45.root
p140
aV/store/group/snt/run2_data/Run2016C_SinglePhoton_MINIAOD_03Feb2017-v1/merged/V08-00-18/merged_ntuple_46.root
p141
aV/store/group/snt/run2_data/Run2016C_SinglePhoton_MINIAOD_03Feb2017-v1/merged/V08-00-18/merged_ntuple_47.root
p142
aV/store/group/snt/run2_data/Run2016C_SinglePhoton_MINIAOD_03Feb2017-v1/merged/V08-00-18/merged_ntuple_48.root
p143
aV/store/group/snt/run2_data/Run2016C_SinglePhoton_MINIAOD_03Feb2017-v1/merged/V08-00-18/merged_ntuple_49.root
p144
aV/store/group/snt/run2_data/Run2016C_SinglePhoton_MINIAOD_03Feb2017-v1/merged/V08-00-18/merged_ntuple_50.root
p145
aV/store/group/snt/run2_data/Run2016C_SinglePhoton_MINIAOD_03Feb2017-v1/merged/V08-00-18/merged_ntuple_51.root
p146
aV/store/group/snt/run2_data/Run2016C_SinglePhoton_MINIAOD_03Feb2017-v1/merged/V08-00-18/merged_ntuple_52.root
p147
aV/store/group/snt/run2_data/Run2016C_SinglePhoton_MINIAOD_03Feb2017-v1/merged/V08-00-18/merged_ntuple_53.root
p148
aV/store/group/snt/run2_data/Run2016C_SinglePhoton_MINIAOD_03Feb2017-v1/merged/V08-00-18/merged_ntuple_54.root
p149
aV/store/group/snt/run2_data/Run2016C_SinglePhoton_MINIAOD_03Feb2017-v1/merged/V08-00-18/merged_ntuple_55.root
p150
aV/store/group/snt/run2_data/Run2016C_SinglePhoton_MINIAOD_03Feb2017-v1/merged/V08-00-18/merged_ntuple_56.root
p151
aV/store/group/snt/run2_data/Run2016C_SinglePhoton_MINIAOD_03Feb2017-v1/merged/V08-00-18/merged_ntuple_57.root
p152
aV/store/group/snt/run2_data/Run2016C_SinglePhoton_MINIAOD_03Feb2017-v1/merged/V08-00-18/merged_ntuple_58.root
p153
aV/store/group/snt/run2_data/Run2016C_SinglePhoton_MINIAOD_03Feb2017-v1/merged/V08-00-18/merged_ntuple_59.root
p154
aV/store/group/snt/run2_data/Run2016C_SinglePhoton_MINIAOD_03Feb2017-v1/merged/V08-00-18/merged_ntuple_60.root
p155
aV/store/group/snt/run2_data/Run2016C_SinglePhoton_MINIAOD_03Feb2017-v1/merged/V08-00-18/merged_ntuple_61.root
p156
aV/store/group/snt/run2_data/Run2016C_SinglePhoton_MINIAOD_03Feb2017-v1/merged/V08-00-18/merged_ntuple_62.root
p157
aV/store/group/snt/run2_data/Run2016C_SinglePhoton_MINIAOD_03Feb2017-v1/merged/V08-00-18/merged_ntuple_63.root
p158
aV/store/group/snt/run2_data/Run2016C_SinglePhoton_MINIAOD_03Feb2017-v1/merged/V08-00-18/merged_ntuple_64.root
p159
aV/store/group/snt/run2_data/Run2016C_SinglePhoton_MINIAOD_03Feb2017-v1/merged/V08-00-18/merged_ntuple_65.root
p160
aV/store/group/snt/run2_data/Run2016C_SinglePhoton_MINIAOD_03Feb2017-v1/merged/V08-00-18/merged_ntuple_66.root
p161
aV/store/group/snt/run2_data/Run2016C_SinglePhoton_MINIAOD_03Feb2017-v1/merged/V08-00-18/merged_ntuple_67.root
p162
aV/store/group/snt/run2_data/Run2016C_SinglePhoton_MINIAOD_03Feb2017-v1/merged/V08-00-18/merged_ntuple_68.root
p163
aV/store/group/snt/run2_data/Run2016C_SinglePhoton_MINIAOD_03Feb2017-v1/merged/V08-00-18/merged_ntuple_69.root
p164
aV/store/group/snt/run2_data/Run2016C_SinglePhoton_MINIAOD_03Feb2017-v1/merged/V08-00-18/merged_ntuple_70.root
p165
aV/store/group/snt/run2_data/Run2016C_SinglePhoton_MINIAOD_03Feb2017-v1/merged/V08-00-18/merged_ntuple_71.root
p166
aV/store/group/snt/run2_data/Run2016C_SinglePhoton_MINIAOD_03Feb2017-v1/merged/V08-00-18/merged_ntuple_72.root
p167
aV/store/group/snt/run2_data/Run2016C_SinglePhoton_MINIAOD_03Feb2017-v1/merged/V08-00-18/merged_ntuple_73.root
p168
aV/store/group/snt/run2_data/Run2016C_SinglePhoton_MINIAOD_03Feb2017-v1/merged/V08-00-18/merged_ntuple_74.root
p169
aV/store/group/snt/run2_data/Run2016C_SinglePhoton_MINIAOD_03Feb2017-v1/merged/V08-00-18/merged_ntuple_75.root
p170
aV/store/group/snt/run2_data/Run2016C_SinglePhoton_MINIAOD_03Feb2017-v1/merged/V08-00-18/merged_ntuple_76.root
p171
aV/store/group/snt/run2_data/Run2016C_SinglePhoton_MINIAOD_03Feb2017-v1/merged/V08-00-18/merged_ntuple_77.root
p172
aV/store/group/snt/run2_data/Run2016C_SinglePhoton_MINIAOD_03Feb2017-v1/merged/V08-00-18/merged_ntuple_78.root
p173
aV/store/group/snt/run2_data/Run2016C_SinglePhoton_MINIAOD_03Feb2017-v1/merged/V08-00-18/merged_ntuple_79.root
p174
aV/store/group/snt/run2_data/Run2016C_SinglePhoton_MINIAOD_03Feb2017-v1/merged/V08-00-18/merged_ntuple_80.root
p175
aV/store/group/snt/run2_data/Run2016C_SinglePhoton_MINIAOD_03Feb2017-v1/merged/V08-00-18/merged_ntuple_81.root
p176
aV/store/group/snt/run2_data/Run2016C_SinglePhoton_MINIAOD_03Feb2017-v1/merged/V08-00-18/merged_ntuple_82.root
p177
aV/store/group/snt/run2_data/Run2016C_SinglePhoton_MINIAOD_03Feb2017-v1/merged/V08-00-18/merged_ntuple_83.root
p178
aV/store/group/snt/run2_data/Run2016C_SinglePhoton_MINIAOD_03Feb2017-v1/merged/V08-00-18/merged_ntuple_84.root
p179
aV/store/group/snt/run2_data/Run2016C_SinglePhoton_MINIAOD_03Feb2017-v1/merged/V08-00-18/merged_ntuple_85.root
p180
aV/store/group/snt/run2_data/Run2016C_SinglePhoton_MINIAOD_03Feb2017-v1/merged/V08-00-18/merged_ntuple_86.root
p181
aV/store/group/snt/run2_data/Run2016C_SinglePhoton_MINIAOD_03Feb2017-v1/merged/V08-00-18/merged_ntuple_87.root
p182
aV/store/group/snt/run2_data/Run2016C_SinglePhoton_MINIAOD_03Feb2017-v1/merged/V08-00-18/merged_ntuple_88.root
p183
aV/store/group/snt/run2_data/Run2016C_SinglePhoton_MINIAOD_03Feb2017-v1/merged/V08-00-18/merged_ntuple_89.root
p184
aV/store/group/snt/run2_data/Run2016C_SinglePhoton_MINIAOD_03Feb2017-v1/merged/V08-00-18/merged_ntuple_90.root
p185
aV/store/group/snt/run2_data/Run2016C_SinglePhoton_MINIAOD_03Feb2017-v1/merged/V08-00-18/merged_ntuple_91.root
p186
aV/store/group/snt/run2_data/Run2016C_SinglePhoton_MINIAOD_03Feb2017-v1/merged/V08-00-18/merged_ntuple_92.root
p187
aV/store/group/snt/run2_data/Run2016C_SinglePhoton_MINIAOD_03Feb2017-v1/merged/V08-00-18/merged_ntuple_93.root
p188
aV/store/group/snt/run2_data/Run2016C_SinglePhoton_MINIAOD_03Feb2017-v1/merged/V08-00-18/merged_ntuple_94.root
p189
aV/store/group/snt/run2_data/Run2016C_SinglePhoton_MINIAOD_03Feb2017-v1/merged/V08-00-18/merged_ntuple_95.root
p190
aV/store/group/snt/run2_data/Run2016C_SinglePhoton_MINIAOD_03Feb2017-v1/merged/V08-00-18/merged_ntuple_96.root
p191
aV/store/group/snt/run2_data/Run2016C_SinglePhoton_MINIAOD_03Feb2017-v1/merged/V08-00-18/merged_ntuple_97.root
p192
aV/store/group/snt/run2_data/Run2016C_SinglePhoton_MINIAOD_03Feb2017-v1/merged/V08-00-18/merged_ntuple_98.root
p193
aV/store/group/snt/run2_data/Run2016C_SinglePhoton_MINIAOD_03Feb2017-v1/merged/V08-00-18/merged_ntuple_99.root
p194
aV/store/group/snt/run2_data/Run2016C_SinglePhoton_MINIAOD_03Feb2017-v1/merged/V08-00-18/merged_ntuple_100.root
p195
aV/store/group/snt/run2_data/Run2016C_SinglePhoton_MINIAOD_03Feb2017-v1/merged/V08-00-18/merged_ntuple_101.root
p196
aV/store/group/snt/run2_data/Run2016C_SinglePhoton_MINIAOD_03Feb2017-v1/merged/V08-00-18/merged_ntuple_102.root
p197
aV/store/group/snt/run2_data/Run2016C_SinglePhoton_MINIAOD_03Feb2017-v1/merged/V08-00-18/merged_ntuple_103.root
p198
aV/store/group/snt/run2_data/Run2016C_SinglePhoton_MINIAOD_03Feb2017-v1/merged/V08-00-18/merged_ntuple_104.root
p199
aV/store/group/snt/run2_data/Run2016C_SinglePhoton_MINIAOD_03Feb2017-v1/merged/V08-00-18/merged_ntuple_105.root
p200
aV/store/group/snt/run2_data/Run2016C_SinglePhoton_MINIAOD_03Feb2017-v1/merged/V08-00-18/merged_ntuple_106.root
p201
aV/store/group/snt/run2_data/Run2016C_SinglePhoton_MINIAOD_03Feb2017-v1/merged/V08-00-18/merged_ntuple_107.root
p202
aV/store/group/snt/run2_data/Run2016C_SinglePhoton_MINIAOD_03Feb2017-v1/merged/V08-00-18/merged_ntuple_108.root
p203
aV/store/group/snt/run2_data/Run2016C_SinglePhoton_MINIAOD_03Feb2017-v1/merged/V08-00-18/merged_ntuple_109.root
p204
aV/store/group/snt/run2_data/Run2016C_SinglePhoton_MINIAOD_03Feb2017-v1/merged/V08-00-18/merged_ntuple_110.root
p205
aV/store/group/snt/run2_data/Run2016C_SinglePhoton_MINIAOD_03Feb2017-v1/merged/V08-00-18/merged_ntuple_111.root
p206
aV/store/group/snt/run2_data/Run2016C_SinglePhoton_MINIAOD_03Feb2017-v1/merged/V08-00-18/merged_ntuple_112.root
p207
aV/store/group/snt/run2_data/Run2016C_SinglePhoton_MINIAOD_03Feb2017-v1/merged/V08-00-18/merged_ntuple_113.root
p208
aV/store/group/snt/run2_data/Run2016C_SinglePhoton_MINIAOD_03Feb2017-v1/merged/V08-00-18/merged_ntuple_114.root
p209
aV/store/group/snt/run2_data/Run2016C_SinglePhoton_MINIAOD_03Feb2017-v1/merged/V08-00-18/merged_ntuple_115.root
p210
aV/store/group/snt/run2_data/Run2016C_SinglePhoton_MINIAOD_03Feb2017-v1/merged/V08-00-18/merged_ntuple_116.root
p211
aV/store/group/snt/run2_data/Run2016C_SinglePhoton_MINIAOD_03Feb2017-v1/merged/V08-00-18/merged_ntuple_117.root
p212
aV/store/group/snt/run2_data/Run2016C_SinglePhoton_MINIAOD_03Feb2017-v1/merged/V08-00-18/merged_ntuple_118.root
p213
aV/store/group/snt/run2_data/Run2016C_SinglePhoton_MINIAOD_03Feb2017-v1/merged/V08-00-18/merged_ntuple_119.root
p214
aV/store/group/snt/run2_data/Run2016C_SinglePhoton_MINIAOD_03Feb2017-v1/merged/V08-00-18/merged_ntuple_120.root
p215
aV/store/group/snt/run2_data/Run2016C_SinglePhoton_MINIAOD_03Feb2017-v1/merged/V08-00-18/merged_ntuple_121.root
p216
aV/store/group/snt/run2_data/Run2016C_SinglePhoton_MINIAOD_03Feb2017-v1/merged/V08-00-18/merged_ntuple_122.root
p217
aV/store/group/snt/run2_data/Run2016C_SinglePhoton_MINIAOD_03Feb2017-v1/merged/V08-00-18/merged_ntuple_123.root
p218
aV/store/group/snt/run2_data/Run2016C_SinglePhoton_MINIAOD_03Feb2017-v1/merged/V08-00-18/merged_ntuple_124.root
p219
aV/store/group/snt/run2_data/Run2016C_SinglePhoton_MINIAOD_03Feb2017-v1/merged/V08-00-18/merged_ntuple_125.root
p220
aV/store/group/snt/run2_data/Run2016C_SinglePhoton_MINIAOD_03Feb2017-v1/merged/V08-00-18/merged_ntuple_126.root
p221
aV/store/group/snt/run2_data/Run2016C_SinglePhoton_MINIAOD_03Feb2017-v1/merged/V08-00-18/merged_ntuple_127.root
p222
aV/store/group/snt/run2_data/Run2016C_SinglePhoton_MINIAOD_03Feb2017-v1/merged/V08-00-18/merged_ntuple_128.root
p223
aV/store/group/snt/run2_data/Run2016C_SinglePhoton_MINIAOD_03Feb2017-v1/merged/V08-00-18/merged_ntuple_129.root
p224
aV/store/group/snt/run2_data/Run2016C_SinglePhoton_MINIAOD_03Feb2017-v1/merged/V08-00-18/merged_ntuple_130.root
p225
aV/store/group/snt/run2_data/Run2016C_SinglePhoton_MINIAOD_03Feb2017-v1/merged/V08-00-18/merged_ntuple_131.root
p226
aV/store/group/snt/run2_data/Run2016C_SinglePhoton_MINIAOD_03Feb2017-v1/merged/V08-00-18/merged_ntuple_132.root
p227
aV/store/group/snt/run2_data/Run2016C_SinglePhoton_MINIAOD_03Feb2017-v1/merged/V08-00-18/merged_ntuple_133.root
p228
aV/store/group/snt/run2_data/Run2016C_SinglePhoton_MINIAOD_03Feb2017-v1/merged/V08-00-18/merged_ntuple_134.root
p229
aV/store/group/snt/run2_data/Run2016C_SinglePhoton_MINIAOD_03Feb2017-v1/merged/V08-00-18/merged_ntuple_135.root
p230
aV/store/group/snt/run2_data/Run2016C_SinglePhoton_MINIAOD_03Feb2017-v1/merged/V08-00-18/merged_ntuple_136.root
p231
aV/store/group/snt/run2_data/Run2016C_SinglePhoton_MINIAOD_03Feb2017-v1/merged/V08-00-18/merged_ntuple_137.root
p232
aV/store/group/snt/run2_data/Run2016C_SinglePhoton_MINIAOD_03Feb2017-v1/merged/V08-00-18/merged_ntuple_138.root
p233
aV/store/group/snt/run2_data/Run2016C_SinglePhoton_MINIAOD_03Feb2017-v1/merged/V08-00-18/merged_ntuple_139.root
p234
aV/store/group/snt/run2_data/Run2016C_SinglePhoton_MINIAOD_03Feb2017-v1/merged/V08-00-18/merged_ntuple_140.root
p235
aV/store/group/snt/run2_data/Run2016C_SinglePhoton_MINIAOD_03Feb2017-v1/merged/V08-00-18/merged_ntuple_141.root
p236
aV/store/group/snt/run2_data/Run2016C_SinglePhoton_MINIAOD_03Feb2017-v1/merged/V08-00-18/merged_ntuple_142.root
p237
aV/store/group/snt/run2_data/Run2016C_SinglePhoton_MINIAOD_03Feb2017-v1/merged/V08-00-18/merged_ntuple_143.root
p238
aV/store/group/snt/run2_data/Run2016C_SinglePhoton_MINIAOD_03Feb2017-v1/merged/V08-00-18/merged_ntuple_144.root
p239
aV/store/group/snt/run2_data/Run2016C_SinglePhoton_MINIAOD_03Feb2017-v1/merged/V08-00-18/merged_ntuple_145.root
p240
aV/store/group/snt/run2_data/Run2016C_SinglePhoton_MINIAOD_03Feb2017-v1/merged/V08-00-18/merged_ntuple_146.root
p241
aV/store/group/snt/run2_data/Run2016C_SinglePhoton_MINIAOD_03Feb2017-v1/merged/V08-00-18/merged_ntuple_147.root
p242
aV/store/group/snt/run2_data/Run2016C_SinglePhoton_MINIAOD_03Feb2017-v1/merged/V08-00-18/merged_ntuple_148.root
p243
aV/store/group/snt/run2_data/Run2016C_SinglePhoton_MINIAOD_03Feb2017-v1/merged/V08-00-18/merged_ntuple_149.root
p244
aV/store/group/snt/run2_data/Run2016C_SinglePhoton_MINIAOD_03Feb2017-v1/merged/V08-00-18/merged_ntuple_150.root
p245
aV/store/group/snt/run2_data/Run2016C_SinglePhoton_MINIAOD_03Feb2017-v1/merged/V08-00-18/merged_ntuple_151.root
p246
aV/store/group/snt/run2_data/Run2016C_SinglePhoton_MINIAOD_03Feb2017-v1/merged/V08-00-18/merged_ntuple_152.root
p247
aV/store/group/snt/run2_data/Run2016C_SinglePhoton_MINIAOD_03Feb2017-v1/merged/V08-00-18/merged_ntuple_153.root
p248
aV/store/group/snt/run2_data/Run2016C_SinglePhoton_MINIAOD_03Feb2017-v1/merged/V08-00-18/merged_ntuple_154.root
p249
aV/store/group/snt/run2_data/Run2016C_SinglePhoton_MINIAOD_03Feb2017-v1/merged/V08-00-18/merged_ntuple_155.root
p250
aV/store/group/snt/run2_data/Run2016C_SinglePhoton_MINIAOD_03Feb2017-v1/merged/V08-00-18/merged_ntuple_156.root
p251
aV/store/group/snt/run2_data/Run2016C_SinglePhoton_MINIAOD_03Feb2017-v1/merged/V08-00-18/merged_ntuple_157.root
p252
aV/store/group/snt/run2_data/Run2016C_SinglePhoton_MINIAOD_03Feb2017-v1/merged/V08-00-18/merged_ntuple_158.root
p253
aV/store/group/snt/run2_data/Run2016C_SinglePhoton_MINIAOD_03Feb2017-v1/merged/V08-00-18/merged_ntuple_159.root
p254
aV/store/group/snt/run2_data/Run2016C_SinglePhoton_MINIAOD_03Feb2017-v1/merged/V08-00-18/merged_ntuple_160.root
p255
aV/store/group/snt/run2_data/Run2016C_SinglePhoton_MINIAOD_03Feb2017-v1/merged/V08-00-18/merged_ntuple_161.root
p256
aV/store/group/snt/run2_data/Run2016C_SinglePhoton_MINIAOD_03Feb2017-v1/merged/V08-00-18/merged_ntuple_162.root
p257
aV/store/group/snt/run2_data/Run2016C_SinglePhoton_MINIAOD_03Feb2017-v1/merged/V08-00-18/merged_ntuple_163.root
p258
aV/store/group/snt/run2_data/Run2016C_SinglePhoton_MINIAOD_03Feb2017-v1/merged/V08-00-18/merged_ntuple_164.root
p259
aV/store/group/snt/run2_data/Run2016C_SinglePhoton_MINIAOD_03Feb2017-v1/merged/V08-00-18/merged_ntuple_165.root
p260
aV/store/group/snt/run2_data/Run2016C_SinglePhoton_MINIAOD_03Feb2017-v1/merged/V08-00-18/merged_ntuple_166.root
p261
aV/store/group/snt/run2_data/Run2016C_SinglePhoton_MINIAOD_03Feb2017-v1/merged/V08-00-18/merged_ntuple_167.root
p262
aV/store/group/snt/run2_data/Run2016C_SinglePhoton_MINIAOD_03Feb2017-v1/merged/V08-00-18/merged_ntuple_168.root
p263
aV/store/group/snt/run2_data/Run2016C_SinglePhoton_MINIAOD_03Feb2017-v1/merged/V08-00-18/merged_ntuple_169.root
p264
aV/store/group/snt/run2_data/Run2016C_SinglePhoton_MINIAOD_03Feb2017-v1/merged/V08-00-18/merged_ntuple_170.root
p265
aV/store/group/snt/run2_data/Run2016C_SinglePhoton_MINIAOD_03Feb2017-v1/merged/V08-00-18/merged_ntuple_171.root
p266
aV/store/group/snt/run2_data/Run2016C_SinglePhoton_MINIAOD_03Feb2017-v1/merged/V08-00-18/merged_ntuple_172.root
p267
aV/store/group/snt/run2_data/Run2016C_SinglePhoton_MINIAOD_03Feb2017-v1/merged/V08-00-18/merged_ntuple_173.root
p268
aV/store/group/snt/run2_data/Run2016C_SinglePhoton_MINIAOD_03Feb2017-v1/merged/V08-00-18/merged_ntuple_174.root
p269
aV/store/group/snt/run2_data/Run2016C_SinglePhoton_MINIAOD_03Feb2017-v1/merged/V08-00-18/merged_ntuple_175.root
p270
aV/store/group/snt/run2_data/Run2016C_SinglePhoton_MINIAOD_03Feb2017-v1/merged/V08-00-18/merged_ntuple_176.root
p271
aV/store/group/snt/run2_data/Run2016C_SinglePhoton_MINIAOD_03Feb2017-v1/merged/V08-00-18/merged_ntuple_177.root
p272
aV/store/group/snt/run2_data/Run2016C_SinglePhoton_MINIAOD_03Feb2017-v1/merged/V08-00-18/merged_ntuple_178.root
p273
aV/store/group/snt/run2_data/Run2016C_SinglePhoton_MINIAOD_03Feb2017-v1/merged/V08-00-18/merged_ntuple_179.root
p274
aV/store/group/snt/run2_data/Run2016C_SinglePhoton_MINIAOD_03Feb2017-v1/merged/V08-00-18/merged_ntuple_180.root
p275
aV/store/group/snt/run2_data/Run2016C_SinglePhoton_MINIAOD_03Feb2017-v1/merged/V08-00-18/merged_ntuple_181.root
p276
aV/store/group/snt/run2_data/Run2016C_SinglePhoton_MINIAOD_03Feb2017-v1/merged/V08-00-18/merged_ntuple_182.root
p277
aV/store/group/snt/run2_data/Run2016C_SinglePhoton_MINIAOD_03Feb2017-v1/merged/V08-00-18/merged_ntuple_183.root
p278
aV/store/group/snt/run2_data/Run2016C_SinglePhoton_MINIAOD_03Feb2017-v1/merged/V08-00-18/merged_ntuple_184.root
p279
aV/store/group/snt/run2_data/Run2016C_SinglePhoton_MINIAOD_03Feb2017-v1/merged/V08-00-18/merged_ntuple_185.root
p280
aV/store/group/snt/run2_data/Run2016C_SinglePhoton_MINIAOD_03Feb2017-v1/merged/V08-00-18/merged_ntuple_186.root
p281
aV/store/group/snt/run2_data/Run2016C_SinglePhoton_MINIAOD_03Feb2017-v1/merged/V08-00-18/merged_ntuple_187.root
p282
aV/store/group/snt/run2_data/Run2016C_SinglePhoton_MINIAOD_03Feb2017-v1/merged/V08-00-18/merged_ntuple_188.root
p283
assS'nevents_unmerged'
p284
I0
sg82
g83
sS'postprocessing'
p285
(dp286
sS'nevents_merged'
p287
I0
sS'nevents_DAS'
p288
I0
ssS'misc'
p289
(dp290
S'rootfiles'
p291
(lp292
sS'crab_config'
p293
NsS'last_saved'
p294
I1507081663
sS'handled_more_than_1k'
p295
I00
sS'can_skip_tail'
p296
I00
sS'email_when_done'
p297
I00
sS'update_dis_when_done'
p298
I01
sS'pfx_babies'
p299
S'babies'
p300
sS'logfiles'
p301
(lp302
sS'pfx_pset'
p303
g7
sS'pfx_crab'
p304
g17
ss.