(dp0
S'sample'
p1
(dp2
S'gtag'
p3
NsS'isdata'
p4
I00
sS'dataset'
p5
S'/JetHT/Run2016B-03Feb2017_ver2-v2/CMS3'
p6
sS'pset'
p7
S''
p8
sS'finaldir'
p9
g8
sS'ijob_to_nevents'
p10
(dp11
sS'basedir'
p12
S'/home/users/dpgilber/MT2AnalysisNebraskaCMS3/babymaker/batchsubmit/'
p13
sS'kfact'
p14
NsS'imerged_to_ijob'
p15
(dp16
sS'crab'
p17
(dp18
S'resubmissions'
p19
I0
sS'datetime'
p20
NsS'jobs_left'
p21
(lp22
sS'requestname'
p23
S'JetHT_Run2016B-03Feb2017_ver2-v2'
p24
sS'taskdir'
p25
S'babies/babies_JetHT_Run2016B-03Feb2017_ver2-v2_2016_El50noID'
p26
sS'outputdir'
p27
NsS'jobs_left_tail'
p28
(lp29
ssS'shortname'
p30
g24
sS'xsec'
p31
NsS'type'
p32
S'BABY'
p33
sS'checks'
p34
(dp35
sS'sparms'
p36
(lp37
sS'status'
p38
S'condor'
p39
sS'ijob_to_miniaod'
p40
(dp41
sS'cms3tag'
p42
VCMS3_V08-00-18
p43
sS'specialdir'
p44
g8
sS'user'
p45
S'dpgilber'
p46
sS'efact'
p47
NsS'baby'
p48
(dp49
S'condor_done'
p50
I470
sS'sweepRoot_script'
p51
S'/home/users/dpgilber/MT2AnalysisNebraskaCMS3/babymaker/batchsubmit//babies/sweepRoot.sh'
p52
sS'user_executable'
p53
S'/home/users/dpgilber/MT2AnalysisNebraskaCMS3/babymaker/batchsubmit/job_input/wrapper_auto.sh'
p54
sS'dataset'
p55
g6
sS'scramarch'
p56
S'slc6_amd64_gcc530'
p57
sS'outputdir_pattern'
p58
S'/hadoop/cms/store/user/dpgilber/AutoTwopler_babies/${ANALYSIS}_${BABY_TAG}/${SHORTNAME}/'
p59
sS'total'
p60
I1101
sS'finaldir'
p61
S'/hadoop/cms/store/user/dpgilber/AutoTwopler_babies/MT2_2016_El50noID/JetHT_Run2016B-03Feb2017_ver2-v2/'
p62
sS'merging_script'
p63
S'/home/users/dpgilber/MT2AnalysisNebraskaCMS3/babymaker/batchsubmit//babies/merging_script.sh'
p64
sS'idle'
p65
I1075
sS'output_names_nosplit'
p66
S'output.root,skim.root,skim_rphi.root'
p67
sS'imerged'
p68
(lp69
I1
aI2
aI3
aI4
aI5
aI6
aI7
aI8
aI9
aI10
aI11
aI12
aI13
aI14
aI15
aI16
aI17
aI18
aI19
aI20
aI21
aI22
aI23
aI24
aI25
aI26
aI27
aI28
aI29
aI30
aI31
aI32
aI33
aI34
aI35
aI36
aI37
aI38
aI39
aI40
aI41
aI42
aI43
aI44
aI45
aI46
aI47
aI48
aI49
aI50
aI51
aI52
aI53
aI54
aI55
aI56
aI57
aI58
aI59
aI60
aI61
aI62
aI63
aI64
aI65
aI66
aI67
aI68
aI69
aI70
aI71
aI72
aI73
aI74
aI75
aI76
aI77
aI78
aI79
aI80
aI81
aI82
aI83
aI84
aI85
aI86
aI87
aI88
aI89
aI90
aI91
aI92
aI93
aI94
aI95
aI96
aI97
aI98
aI99
aI100
aI101
aI102
aI103
aI104
aI105
aI106
aI107
aI108
aI109
aI110
aI111
aI112
aI113
aI114
aI115
aI116
aI117
aI118
aI119
aI120
aI121
aI122
aI123
aI124
aI125
aI126
aI127
aI128
aI129
aI130
aI131
aI132
aI133
aI134
aI135
aI136
aI137
aI138
aI139
aI140
aI141
aI142
aI143
aI144
aI145
aI146
aI147
aI148
aI149
aI150
aI151
aI152
aI153
aI154
aI155
aI156
aI157
aI158
aI159
aI160
aI161
aI162
aI163
aI164
aI165
aI166
aI167
aI168
aI169
aI170
aI171
aI172
aI173
aI174
aI175
aI176
aI177
aI178
aI179
aI180
aI181
aI182
aI183
aI184
aI185
aI186
aI187
aI188
aI189
aI190
aI191
aI192
aI193
aI194
aI195
aI196
aI197
aI198
aI199
aI200
aI201
aI202
aI203
aI204
aI205
aI206
aI207
aI208
aI209
aI210
aI211
aI212
aI213
aI214
aI215
aI216
aI217
aI218
aI219
aI220
aI221
aI222
aI223
aI224
aI225
aI226
aI227
aI228
aI229
aI230
aI231
aI232
aI233
aI234
aI235
aI236
aI237
aI238
aI239
aI240
aI241
aI242
aI243
aI244
aI245
aI246
aI247
aI248
aI249
aI250
aI251
aI252
aI253
aI254
aI255
aI256
aI257
aI258
aI259
aI260
aI261
aI262
aI263
aI264
aI265
aI266
aI267
aI268
aI269
aI270
aI271
aI272
aI273
aI274
aI275
aI276
aI277
aI278
aI279
aI280
aI281
aI282
aI283
aI284
aI285
aI286
aI287
aI288
aI289
aI290
aI291
aI292
aI293
aI294
aI295
aI296
aI297
aI298
aI299
aI300
aI301
aI302
aI303
aI304
aI305
aI306
aI307
aI308
aI309
aI310
aI311
aI312
aI313
aI314
aI315
aI316
aI317
aI318
aI319
aI320
aI321
aI322
aI323
aI324
aI325
aI326
aI327
aI328
aI329
aI330
aI331
aI332
aI333
aI334
aI335
aI336
aI337
aI338
aI339
aI340
aI341
aI342
aI343
aI344
aI345
aI346
aI347
aI348
aI349
aI350
aI351
aI352
aI353
aI354
aI355
aI356
aI357
aI358
aI359
aI360
aI361
aI362
aI363
aI364
aI365
aI366
aI367
aI368
aI369
aI370
aI371
aI372
aI373
aI374
aI375
aI376
aI377
aI378
aI379
aI380
aI381
aI382
aI383
aI384
aI385
aI386
aI387
aI388
aI389
aI390
aI391
aI392
aI393
aI394
aI395
aI396
aI397
aI398
aI399
aI400
aI401
aI402
aI403
aI404
aI405
aI406
aI407
aI408
aI409
aI410
aI411
aI412
aI413
aI414
aI415
aI416
aI417
aI418
aI419
aI420
aI421
aI422
aI423
aI424
aI425
aI426
aI427
aI428
aI429
aI430
aI431
aI432
aI433
aI434
aI435
aI436
aI437
aI438
aI439
aI440
aI441
aI442
aI443
aI444
aI445
aI446
aI447
aI448
aI449
aI450
aI451
aI452
aI453
aI454
aI455
aI456
aI457
aI458
aI459
aI460
aI461
aI462
aI463
aI464
aI465
aI466
aI467
aI468
aI469
aI470
aI471
aI472
aI473
aI474
aI475
aI476
aI477
aI478
aI479
aI480
aI481
aI482
aI483
aI484
aI485
aI486
aI487
aI488
aI489
aI490
aI491
aI492
aI493
aI494
aI495
aI496
aI497
aI498
aI499
aI500
aI501
aI502
aI503
aI504
aI505
aI506
aI507
aI508
aI509
aI510
aI511
aI512
aI513
aI514
aI515
aI516
aI517
aI518
aI519
aI520
aI521
aI522
aI523
aI524
aI525
aI526
aI527
aI528
aI529
aI530
aI531
aI532
aI533
aI534
aI535
aI536
aI537
aI538
aI539
aI540
aI541
aI542
aI543
aI544
aI545
aI546
aI547
aI548
aI549
aI550
aI551
aI552
aI553
aI554
aI555
aI556
aI557
aI558
aI559
aI560
aI561
aI562
aI563
aI564
aI565
aI566
aI567
aI568
aI569
aI570
aI571
aI572
aI573
aI574
aI575
aI576
aI577
aI578
aI579
aI580
aI581
aI582
aI583
aI584
aI585
aI586
aI587
aI588
aI589
aI590
aI591
aI592
aI593
aI594
aI595
aI596
aI597
aI598
aI599
aI600
aI601
aI602
aI603
aI604
aI605
aI606
aI607
aI608
aI609
aI610
aI611
aI612
aI613
aI614
aI615
aI616
aI617
aI618
aI619
aI620
aI621
aI622
aI623
aI624
aI625
aI626
aI627
aI628
aI629
aI630
aI631
aI632
aI633
aI634
aI635
aI636
aI637
aI638
aI639
aI640
aI641
aI642
aI643
aI644
aI645
aI646
aI647
aI648
aI649
aI650
aI651
aI652
aI653
aI654
aI655
aI656
aI657
aI658
aI659
aI660
aI661
aI662
aI663
aI664
aI665
aI666
aI667
aI668
aI669
aI670
aI671
aI672
aI673
aI674
aI675
aI676
aI677
aI678
aI679
aI680
aI681
aI682
aI683
aI684
aI685
aI686
aI687
aI688
aI689
aI690
aI691
aI692
aI693
aI694
aI695
aI696
aI697
aI698
aI699
aI700
aI701
aI702
aI703
aI704
aI705
aI706
aI707
aI708
aI709
aI710
aI711
aI712
aI713
aI714
aI715
aI716
aI717
aI718
aI719
aI720
aI721
aI722
aI723
aI724
aI725
aI726
aI727
aI728
aI729
aI730
aI731
aI732
aI733
aI734
aI735
aI736
aI737
aI738
aI739
aI740
aI741
aI742
aI743
aI744
aI745
aI746
aI747
aI748
aI749
aI750
aI751
aI752
aI753
aI754
aI755
aI756
aI757
aI758
aI759
aI760
aI761
aI762
aI763
aI764
aI765
aI766
aI767
aI768
aI769
aI770
aI771
aI772
aI773
aI774
aI775
aI776
aI777
aI778
aI779
aI780
aI781
aI782
aI783
aI784
aI785
aI786
aI787
aI788
aI789
aI790
aI791
aI792
aI793
aI794
aI795
aI796
aI797
aI798
aI799
aI800
aI801
aI802
aI803
aI804
aI805
aI806
aI807
aI808
aI809
aI810
aI811
aI812
aI813
aI814
aI815
aI816
aI817
aI818
aI819
aI820
aI821
aI822
aI823
aI824
aI825
aI826
aI827
aI828
aI829
aI830
aI831
aI832
aI833
aI834
aI835
aI836
aI837
aI838
aI839
aI840
aI841
aI842
aI843
aI844
aI845
aI846
aI847
aI848
aI849
aI850
aI851
aI852
aI853
aI854
aI855
aI856
aI857
aI858
aI859
aI860
aI861
aI862
aI863
aI864
aI865
aI866
aI867
aI868
aI869
aI870
aI871
aI872
aI873
aI874
aI875
aI876
aI877
aI878
aI879
aI880
aI881
aI882
aI883
aI884
aI885
aI886
aI887
aI888
aI889
aI890
aI891
aI892
aI893
aI894
aI895
aI896
aI897
aI898
aI899
aI900
aI901
aI902
aI903
aI904
aI905
aI906
aI907
aI908
aI909
aI910
aI911
aI912
aI913
aI914
aI915
aI916
aI917
aI918
aI919
aI920
aI921
aI922
aI923
aI924
aI925
aI926
aI927
aI928
aI929
aI930
aI931
aI932
aI933
aI934
aI935
aI936
aI937
aI938
aI939
aI940
aI941
aI942
aI943
aI944
aI945
aI946
aI947
aI948
aI949
aI950
aI951
aI952
aI953
aI954
aI955
aI956
aI957
aI958
aI959
aI960
aI961
aI962
aI963
aI964
aI965
aI966
aI967
aI968
aI969
aI970
aI971
aI972
aI973
aI974
aI975
aI976
aI977
aI978
aI979
aI980
aI981
aI982
aI983
aI984
aI985
aI986
aI987
aI988
aI989
aI990
aI991
aI992
aI993
aI994
aI995
aI996
aI997
aI998
aI999
aI1000
aI1001
aI1002
aI1003
aI1004
aI1005
aI1006
aI1007
aI1008
aI1009
aI1010
aI1011
aI1012
aI1013
aI1014
aI1015
aI1016
aI1017
aI1018
aI1019
aI1020
aI1021
aI1022
aI1023
aI1024
aI1025
aI1026
aI1027
aI1028
aI1029
aI1030
aI1031
aI1032
aI1033
aI1034
aI1035
aI1036
aI1037
aI1038
aI1039
aI1040
aI1041
aI1042
aI1043
aI1044
aI1045
aI1046
aI1047
aI1048
aI1049
aI1050
aI1051
aI1052
aI1053
aI1054
aI1055
aI1056
aI1057
aI1058
aI1059
aI1060
aI1061
aI1062
aI1063
aI1064
aI1065
aI1066
aI1067
aI1068
aI1069
aI1070
aI1071
aI1072
aI1073
aI1074
aI1075
aI1076
aI1077
aI1078
aI1079
aI1080
aI1081
aI1082
aI1083
aI1084
aI1085
aI1086
aI1087
aI1088
aI1089
aI1090
aI1091
aI1092
aI1093
aI1094
aI1095
aI1096
aI1097
aI1098
aI1099
aI1100
aI1101
asS'sweepRooted'
p70
I470
sS'exe_args'
p71
(lp72
g8
asS'user_package'
p73
S'/home/users/dpgilber/MT2AnalysisNebraskaCMS3/babymaker/batchsubmit/job_input/package.tar.gz'
p74
sS'exe_args_nosplit'
p75
g8
sS'running'
p76
I26
sS'output_names'
p77
(lp78
S'output.root'
p79
aS'skim.root'
p80
aS'skim_rphi.root'
p81
asS'package'
p82
S'/home/users/dpgilber/MT2AnalysisNebraskaCMS3/babymaker/batchsubmit//babies/package.tar.gz'
p83
sS'cmsswver'
p84
S'CMSSW_8_0_21'
p85
sS'have_set_inputs'
p86
I01
sS'analysis'
p87
S'MT2'
p88
sS'executable_script'
p89
S'/home/users/dpgilber/MT2AnalysisNebraskaCMS3/babymaker/batchsubmit//babies/baby_ducks.sh'
p90
sS'nevents'
p91
I-1
sS'baby_tag'
p92
S'2016_El50noID'
p93
sS'imerged_swept'
p94
(lp95
I41
aI106
aI443
aI370
aI673
aI108
aI365
aI1070
aI502
aI503
aI506
aI796
aI1086
aI384
aI712
aI565
aI822
aI824
aI907
aI654
aI224
aI1036
aI1039
aI1008
aI787
aI158
aI798
aI1
aI632
aI917
aI471
aI298
aI235
aI952
aI481
aI485
aI745
aI396
aI657
aI754
aI755
aI567
aI764
aI448
aI354
aI707
aI711
aI848
aI276
aI790
aI628
aI539
aI483
aI933
aI136
aI73
aI746
aI110
aI751
aI208
aI936
aI244
aI343
aI978
aI163
aI804
aI805
aI296
aI617
aI492
aI206
aI473
aI218
aI613
aI262
aI266
aI190
aI630
aI345
aI25
aI27
aI30
aI5
aI230
aI7
aI68
aI487
aI143
aI401
aI18
aI247
aI508
aI573
aI223
aI3
aI44
aI622
aI295
aI8
aI104
aI269
aI102
aI543
aI273
aI164
aI369
aI167
aI472
aI570
aI283
aI742
aI512
aI2
aI515
aI1028
aI105
aI323
aI55
aI544
aI419
aI807
aI1003
aI1077
aI854
aI734
aI39
aI12
aI205
aI526
aI406
aI1054
aI48
aI129
aI38
aI240
aI226
aI880
aI877
aI111
aI688
aI113
aI611
aI838
aI425
aI522
aI75
aI332
aI499
aI627
aI509
aI649
aI800
aI994
aI6
aI1004
aI10
aI1068
aI85
aI341
aI9
aI514
aI275
aI4
aI631
aI1097
aI82
aI11
aI863
aI192
aI97
aI132
aI641
aI620
aI530
aI115
aI533
aI89
aI250
aI252
aI16
aI387
aI788
aI640
aI834
aI853
aI193
aI356
aI871
aI456
aI394
aI267
aI1100
aI909
aI336
aI887
aI661
aI1047
aI1051
aI747
aI200
aI400
aI308
aI294
aI417
aI80
aI878
aI309
aI558
aI1006
aI1016
aI186
aI301
aI229
aI338
aI181
aI213
aI765
aI13
aI215
aI368
aI138
aI836
aI690
aI493
aI568
aI209
aI762
aI212
aI767
aI497
aI898
aI299
aI318
aI272
aI161
aI802
aI14
aI625
aI741
aI623
aI883
aI948
aI19
aI260
aI1071
aI768
aI866
aI867
aI421
aI1095
aI874
aI685
aI17
aI465
aI373
aI664
aI1049
aI410
aI957
aI766
aI20
aI511
aI601
aI811
aI564
aI789
aI582
aI705
aI450
aI951
aI135
aI675
aI71
aI264
aI809
aI458
aI1067
aI889
aI686
aI15
aI947
aI462
aI22
aI249
aI57
aI314
aI495
aI574
aI95
aI32
aI806
aI60
aI268
aI467
aI691
aI52
aI377
aI188
aI159
aI324
aI137
aI812
aI687
aI560
aI23
aI291
aI282
aI643
aI968
aI307
aI359
aI289
aI197
aI778
aI397
aI404
aI312
aI987
aI510
aI554
aI683
aI850
aI693
aI921
aI813
aI736
aI644
aI752
aI222
aI535
aI1083
aI286
aI339
aI51
aI162
aI507
aI227
aI439
aI785
aI328
aI1001
aI171
aI780
aI334
aI335
aI563
aI931
aI147
aI366
aI119
aI56
aI985
aI26
aI92
aI666
aI480
aI98
aI131
aI140
aI174
aI207
aI176
aI376
aI722
aI723
aI437
aI86
aI407
aI24
aI379
aI28
aI93
aI606
aI501
aI34
aI35
aI900
aI552
aI300
aI144
aI316
aI127
aI816
aI561
aI420
aI302
aI64
aI833
aI1031
aI974
aI329
aI525
aI750
aI1073
aI254
aI438
aI635
aI350
aI31
aI964
aI982
aI862
aI903
aI546
aI36
aI461
aI593
aI372
aI285
aI304
aI435
aI29
aI63
aI321
aI842
aI748
aI270
aI78
aI344
aI409
aI1053
aI40
aI43
aI228
aI45
aI781
aI518
aI647
aI364
aI589
aI243
aI182
aI442
aI253
aI255
aI490
aI924
aI21
aI782
aI588
aI865
aI1002
aI237
aI913
aI856
aI922
aI925
aI680
aI178
aI726
aI972
aI42
aI380
aI37
aI157
aI65
aI1089
aI233
aI234
aI236
aI238
aI239
aI958
aI950
aI216
aI1052
aI478
aI33
aI346
aI875
asS'input_filenames'
p96
(lp97
V/nfs-7/userdata/dataTuple/kludge/Run2016B_JetHT_MINIAOD_03Feb2017_ver2-v2/merged/V08-00-18/merged_ntuple_1.root
p98
aV/nfs-7/userdata/dataTuple/kludge/Run2016B_JetHT_MINIAOD_03Feb2017_ver2-v2/merged/V08-00-18/merged_ntuple_2.root
p99
aV/nfs-7/userdata/dataTuple/kludge/Run2016B_JetHT_MINIAOD_03Feb2017_ver2-v2/merged/V08-00-18/merged_ntuple_3.root
p100
aV/nfs-7/userdata/dataTuple/kludge/Run2016B_JetHT_MINIAOD_03Feb2017_ver2-v2/merged/V08-00-18/merged_ntuple_4.root
p101
aV/nfs-7/userdata/dataTuple/kludge/Run2016B_JetHT_MINIAOD_03Feb2017_ver2-v2/merged/V08-00-18/merged_ntuple_5.root
p102
aV/nfs-7/userdata/dataTuple/kludge/Run2016B_JetHT_MINIAOD_03Feb2017_ver2-v2/merged/V08-00-18/merged_ntuple_6.root
p103
aV/nfs-7/userdata/dataTuple/kludge/Run2016B_JetHT_MINIAOD_03Feb2017_ver2-v2/merged/V08-00-18/merged_ntuple_7.root
p104
aV/nfs-7/userdata/dataTuple/kludge/Run2016B_JetHT_MINIAOD_03Feb2017_ver2-v2/merged/V08-00-18/merged_ntuple_8.root
p105
aV/nfs-7/userdata/dataTuple/kludge/Run2016B_JetHT_MINIAOD_03Feb2017_ver2-v2/merged/V08-00-18/merged_ntuple_9.root
p106
aV/nfs-7/userdata/dataTuple/kludge/Run2016B_JetHT_MINIAOD_03Feb2017_ver2-v2/merged/V08-00-18/merged_ntuple_10.root
p107
aV/nfs-7/userdata/dataTuple/kludge/Run2016B_JetHT_MINIAOD_03Feb2017_ver2-v2/merged/V08-00-18/merged_ntuple_11.root
p108
aV/nfs-7/userdata/dataTuple/kludge/Run2016B_JetHT_MINIAOD_03Feb2017_ver2-v2/merged/V08-00-18/merged_ntuple_12.root
p109
aV/nfs-7/userdata/dataTuple/kludge/Run2016B_JetHT_MINIAOD_03Feb2017_ver2-v2/merged/V08-00-18/merged_ntuple_13.root
p110
aV/nfs-7/userdata/dataTuple/kludge/Run2016B_JetHT_MINIAOD_03Feb2017_ver2-v2/merged/V08-00-18/merged_ntuple_14.root
p111
aV/nfs-7/userdata/dataTuple/kludge/Run2016B_JetHT_MINIAOD_03Feb2017_ver2-v2/merged/V08-00-18/merged_ntuple_15.root
p112
aV/nfs-7/userdata/dataTuple/kludge/Run2016B_JetHT_MINIAOD_03Feb2017_ver2-v2/merged/V08-00-18/merged_ntuple_16.root
p113
aV/nfs-7/userdata/dataTuple/kludge/Run2016B_JetHT_MINIAOD_03Feb2017_ver2-v2/merged/V08-00-18/merged_ntuple_17.root
p114
aV/nfs-7/userdata/dataTuple/kludge/Run2016B_JetHT_MINIAOD_03Feb2017_ver2-v2/merged/V08-00-18/merged_ntuple_18.root
p115
aV/nfs-7/userdata/dataTuple/kludge/Run2016B_JetHT_MINIAOD_03Feb2017_ver2-v2/merged/V08-00-18/merged_ntuple_19.root
p116
aV/nfs-7/userdata/dataTuple/kludge/Run2016B_JetHT_MINIAOD_03Feb2017_ver2-v2/merged/V08-00-18/merged_ntuple_20.root
p117
aV/nfs-7/userdata/dataTuple/kludge/Run2016B_JetHT_MINIAOD_03Feb2017_ver2-v2/merged/V08-00-18/merged_ntuple_21.root
p118
aV/nfs-7/userdata/dataTuple/kludge/Run2016B_JetHT_MINIAOD_03Feb2017_ver2-v2/merged/V08-00-18/merged_ntuple_22.root
p119
aV/nfs-7/userdata/dataTuple/kludge/Run2016B_JetHT_MINIAOD_03Feb2017_ver2-v2/merged/V08-00-18/merged_ntuple_23.root
p120
aV/nfs-7/userdata/dataTuple/kludge/Run2016B_JetHT_MINIAOD_03Feb2017_ver2-v2/merged/V08-00-18/merged_ntuple_24.root
p121
aV/nfs-7/userdata/dataTuple/kludge/Run2016B_JetHT_MINIAOD_03Feb2017_ver2-v2/merged/V08-00-18/merged_ntuple_25.root
p122
aV/nfs-7/userdata/dataTuple/kludge/Run2016B_JetHT_MINIAOD_03Feb2017_ver2-v2/merged/V08-00-18/merged_ntuple_26.root
p123
aV/nfs-7/userdata/dataTuple/kludge/Run2016B_JetHT_MINIAOD_03Feb2017_ver2-v2/merged/V08-00-18/merged_ntuple_27.root
p124
aV/nfs-7/userdata/dataTuple/kludge/Run2016B_JetHT_MINIAOD_03Feb2017_ver2-v2/merged/V08-00-18/merged_ntuple_28.root
p125
aV/nfs-7/userdata/dataTuple/kludge/Run2016B_JetHT_MINIAOD_03Feb2017_ver2-v2/merged/V08-00-18/merged_ntuple_29.root
p126
aV/nfs-7/userdata/dataTuple/kludge/Run2016B_JetHT_MINIAOD_03Feb2017_ver2-v2/merged/V08-00-18/merged_ntuple_30.root
p127
aV/nfs-7/userdata/dataTuple/kludge/Run2016B_JetHT_MINIAOD_03Feb2017_ver2-v2/merged/V08-00-18/merged_ntuple_31.root
p128
aV/nfs-7/userdata/dataTuple/kludge/Run2016B_JetHT_MINIAOD_03Feb2017_ver2-v2/merged/V08-00-18/merged_ntuple_32.root
p129
aV/nfs-7/userdata/dataTuple/kludge/Run2016B_JetHT_MINIAOD_03Feb2017_ver2-v2/merged/V08-00-18/merged_ntuple_33.root
p130
aV/nfs-7/userdata/dataTuple/kludge/Run2016B_JetHT_MINIAOD_03Feb2017_ver2-v2/merged/V08-00-18/merged_ntuple_34.root
p131
aV/nfs-7/userdata/dataTuple/kludge/Run2016B_JetHT_MINIAOD_03Feb2017_ver2-v2/merged/V08-00-18/merged_ntuple_35.root
p132
aV/nfs-7/userdata/dataTuple/kludge/Run2016B_JetHT_MINIAOD_03Feb2017_ver2-v2/merged/V08-00-18/merged_ntuple_36.root
p133
aV/nfs-7/userdata/dataTuple/kludge/Run2016B_JetHT_MINIAOD_03Feb2017_ver2-v2/merged/V08-00-18/merged_ntuple_37.root
p134
aV/nfs-7/userdata/dataTuple/kludge/Run2016B_JetHT_MINIAOD_03Feb2017_ver2-v2/merged/V08-00-18/merged_ntuple_38.root
p135
aV/nfs-7/userdata/dataTuple/kludge/Run2016B_JetHT_MINIAOD_03Feb2017_ver2-v2/merged/V08-00-18/merged_ntuple_39.root
p136
aV/nfs-7/userdata/dataTuple/kludge/Run2016B_JetHT_MINIAOD_03Feb2017_ver2-v2/merged/V08-00-18/merged_ntuple_40.root
p137
aV/nfs-7/userdata/dataTuple/kludge/Run2016B_JetHT_MINIAOD_03Feb2017_ver2-v2/merged/V08-00-18/merged_ntuple_41.root
p138
aV/nfs-7/userdata/dataTuple/kludge/Run2016B_JetHT_MINIAOD_03Feb2017_ver2-v2/merged/V08-00-18/merged_ntuple_42.root
p139
aV/nfs-7/userdata/dataTuple/kludge/Run2016B_JetHT_MINIAOD_03Feb2017_ver2-v2/merged/V08-00-18/merged_ntuple_43.root
p140
aV/nfs-7/userdata/dataTuple/kludge/Run2016B_JetHT_MINIAOD_03Feb2017_ver2-v2/merged/V08-00-18/merged_ntuple_44.root
p141
aV/nfs-7/userdata/dataTuple/kludge/Run2016B_JetHT_MINIAOD_03Feb2017_ver2-v2/merged/V08-00-18/merged_ntuple_45.root
p142
aV/nfs-7/userdata/dataTuple/kludge/Run2016B_JetHT_MINIAOD_03Feb2017_ver2-v2/merged/V08-00-18/merged_ntuple_46.root
p143
aV/nfs-7/userdata/dataTuple/kludge/Run2016B_JetHT_MINIAOD_03Feb2017_ver2-v2/merged/V08-00-18/merged_ntuple_47.root
p144
aV/nfs-7/userdata/dataTuple/kludge/Run2016B_JetHT_MINIAOD_03Feb2017_ver2-v2/merged/V08-00-18/merged_ntuple_48.root
p145
aV/nfs-7/userdata/dataTuple/kludge/Run2016B_JetHT_MINIAOD_03Feb2017_ver2-v2/merged/V08-00-18/merged_ntuple_49.root
p146
aV/nfs-7/userdata/dataTuple/kludge/Run2016B_JetHT_MINIAOD_03Feb2017_ver2-v2/merged/V08-00-18/merged_ntuple_50.root
p147
aV/nfs-7/userdata/dataTuple/kludge/Run2016B_JetHT_MINIAOD_03Feb2017_ver2-v2/merged/V08-00-18/merged_ntuple_51.root
p148
aV/nfs-7/userdata/dataTuple/kludge/Run2016B_JetHT_MINIAOD_03Feb2017_ver2-v2/merged/V08-00-18/merged_ntuple_52.root
p149
aV/nfs-7/userdata/dataTuple/kludge/Run2016B_JetHT_MINIAOD_03Feb2017_ver2-v2/merged/V08-00-18/merged_ntuple_53.root
p150
aV/nfs-7/userdata/dataTuple/kludge/Run2016B_JetHT_MINIAOD_03Feb2017_ver2-v2/merged/V08-00-18/merged_ntuple_54.root
p151
aV/nfs-7/userdata/dataTuple/kludge/Run2016B_JetHT_MINIAOD_03Feb2017_ver2-v2/merged/V08-00-18/merged_ntuple_55.root
p152
aV/nfs-7/userdata/dataTuple/kludge/Run2016B_JetHT_MINIAOD_03Feb2017_ver2-v2/merged/V08-00-18/merged_ntuple_56.root
p153
aV/nfs-7/userdata/dataTuple/kludge/Run2016B_JetHT_MINIAOD_03Feb2017_ver2-v2/merged/V08-00-18/merged_ntuple_57.root
p154
aV/nfs-7/userdata/dataTuple/kludge/Run2016B_JetHT_MINIAOD_03Feb2017_ver2-v2/merged/V08-00-18/merged_ntuple_58.root
p155
aV/nfs-7/userdata/dataTuple/kludge/Run2016B_JetHT_MINIAOD_03Feb2017_ver2-v2/merged/V08-00-18/merged_ntuple_59.root
p156
aV/nfs-7/userdata/dataTuple/kludge/Run2016B_JetHT_MINIAOD_03Feb2017_ver2-v2/merged/V08-00-18/merged_ntuple_60.root
p157
aV/nfs-7/userdata/dataTuple/kludge/Run2016B_JetHT_MINIAOD_03Feb2017_ver2-v2/merged/V08-00-18/merged_ntuple_61.root
p158
aV/nfs-7/userdata/dataTuple/kludge/Run2016B_JetHT_MINIAOD_03Feb2017_ver2-v2/merged/V08-00-18/merged_ntuple_62.root
p159
aV/nfs-7/userdata/dataTuple/kludge/Run2016B_JetHT_MINIAOD_03Feb2017_ver2-v2/merged/V08-00-18/merged_ntuple_63.root
p160
aV/nfs-7/userdata/dataTuple/kludge/Run2016B_JetHT_MINIAOD_03Feb2017_ver2-v2/merged/V08-00-18/merged_ntuple_64.root
p161
aV/nfs-7/userdata/dataTuple/kludge/Run2016B_JetHT_MINIAOD_03Feb2017_ver2-v2/merged/V08-00-18/merged_ntuple_65.root
p162
aV/nfs-7/userdata/dataTuple/kludge/Run2016B_JetHT_MINIAOD_03Feb2017_ver2-v2/merged/V08-00-18/merged_ntuple_66.root
p163
aV/nfs-7/userdata/dataTuple/kludge/Run2016B_JetHT_MINIAOD_03Feb2017_ver2-v2/merged/V08-00-18/merged_ntuple_67.root
p164
aV/nfs-7/userdata/dataTuple/kludge/Run2016B_JetHT_MINIAOD_03Feb2017_ver2-v2/merged/V08-00-18/merged_ntuple_68.root
p165
aV/nfs-7/userdata/dataTuple/kludge/Run2016B_JetHT_MINIAOD_03Feb2017_ver2-v2/merged/V08-00-18/merged_ntuple_69.root
p166
aV/nfs-7/userdata/dataTuple/kludge/Run2016B_JetHT_MINIAOD_03Feb2017_ver2-v2/merged/V08-00-18/merged_ntuple_70.root
p167
aV/nfs-7/userdata/dataTuple/kludge/Run2016B_JetHT_MINIAOD_03Feb2017_ver2-v2/merged/V08-00-18/merged_ntuple_71.root
p168
aV/nfs-7/userdata/dataTuple/kludge/Run2016B_JetHT_MINIAOD_03Feb2017_ver2-v2/merged/V08-00-18/merged_ntuple_72.root
p169
aV/nfs-7/userdata/dataTuple/kludge/Run2016B_JetHT_MINIAOD_03Feb2017_ver2-v2/merged/V08-00-18/merged_ntuple_73.root
p170
aV/nfs-7/userdata/dataTuple/kludge/Run2016B_JetHT_MINIAOD_03Feb2017_ver2-v2/merged/V08-00-18/merged_ntuple_74.root
p171
aV/nfs-7/userdata/dataTuple/kludge/Run2016B_JetHT_MINIAOD_03Feb2017_ver2-v2/merged/V08-00-18/merged_ntuple_75.root
p172
aV/nfs-7/userdata/dataTuple/kludge/Run2016B_JetHT_MINIAOD_03Feb2017_ver2-v2/merged/V08-00-18/merged_ntuple_76.root
p173
aV/nfs-7/userdata/dataTuple/kludge/Run2016B_JetHT_MINIAOD_03Feb2017_ver2-v2/merged/V08-00-18/merged_ntuple_77.root
p174
aV/nfs-7/userdata/dataTuple/kludge/Run2016B_JetHT_MINIAOD_03Feb2017_ver2-v2/merged/V08-00-18/merged_ntuple_78.root
p175
aV/nfs-7/userdata/dataTuple/kludge/Run2016B_JetHT_MINIAOD_03Feb2017_ver2-v2/merged/V08-00-18/merged_ntuple_79.root
p176
aV/nfs-7/userdata/dataTuple/kludge/Run2016B_JetHT_MINIAOD_03Feb2017_ver2-v2/merged/V08-00-18/merged_ntuple_80.root
p177
aV/nfs-7/userdata/dataTuple/kludge/Run2016B_JetHT_MINIAOD_03Feb2017_ver2-v2/merged/V08-00-18/merged_ntuple_81.root
p178
aV/nfs-7/userdata/dataTuple/kludge/Run2016B_JetHT_MINIAOD_03Feb2017_ver2-v2/merged/V08-00-18/merged_ntuple_82.root
p179
aV/nfs-7/userdata/dataTuple/kludge/Run2016B_JetHT_MINIAOD_03Feb2017_ver2-v2/merged/V08-00-18/merged_ntuple_83.root
p180
aV/nfs-7/userdata/dataTuple/kludge/Run2016B_JetHT_MINIAOD_03Feb2017_ver2-v2/merged/V08-00-18/merged_ntuple_84.root
p181
aV/nfs-7/userdata/dataTuple/kludge/Run2016B_JetHT_MINIAOD_03Feb2017_ver2-v2/merged/V08-00-18/merged_ntuple_85.root
p182
aV/nfs-7/userdata/dataTuple/kludge/Run2016B_JetHT_MINIAOD_03Feb2017_ver2-v2/merged/V08-00-18/merged_ntuple_86.root
p183
aV/nfs-7/userdata/dataTuple/kludge/Run2016B_JetHT_MINIAOD_03Feb2017_ver2-v2/merged/V08-00-18/merged_ntuple_87.root
p184
aV/nfs-7/userdata/dataTuple/kludge/Run2016B_JetHT_MINIAOD_03Feb2017_ver2-v2/merged/V08-00-18/merged_ntuple_88.root
p185
aV/nfs-7/userdata/dataTuple/kludge/Run2016B_JetHT_MINIAOD_03Feb2017_ver2-v2/merged/V08-00-18/merged_ntuple_89.root
p186
aV/nfs-7/userdata/dataTuple/kludge/Run2016B_JetHT_MINIAOD_03Feb2017_ver2-v2/merged/V08-00-18/merged_ntuple_90.root
p187
aV/nfs-7/userdata/dataTuple/kludge/Run2016B_JetHT_MINIAOD_03Feb2017_ver2-v2/merged/V08-00-18/merged_ntuple_91.root
p188
aV/nfs-7/userdata/dataTuple/kludge/Run2016B_JetHT_MINIAOD_03Feb2017_ver2-v2/merged/V08-00-18/merged_ntuple_92.root
p189
aV/nfs-7/userdata/dataTuple/kludge/Run2016B_JetHT_MINIAOD_03Feb2017_ver2-v2/merged/V08-00-18/merged_ntuple_93.root
p190
aV/nfs-7/userdata/dataTuple/kludge/Run2016B_JetHT_MINIAOD_03Feb2017_ver2-v2/merged/V08-00-18/merged_ntuple_94.root
p191
aV/nfs-7/userdata/dataTuple/kludge/Run2016B_JetHT_MINIAOD_03Feb2017_ver2-v2/merged/V08-00-18/merged_ntuple_95.root
p192
aV/nfs-7/userdata/dataTuple/kludge/Run2016B_JetHT_MINIAOD_03Feb2017_ver2-v2/merged/V08-00-18/merged_ntuple_96.root
p193
aV/nfs-7/userdata/dataTuple/kludge/Run2016B_JetHT_MINIAOD_03Feb2017_ver2-v2/merged/V08-00-18/merged_ntuple_97.root
p194
aV/nfs-7/userdata/dataTuple/kludge/Run2016B_JetHT_MINIAOD_03Feb2017_ver2-v2/merged/V08-00-18/merged_ntuple_98.root
p195
aV/nfs-7/userdata/dataTuple/kludge/Run2016B_JetHT_MINIAOD_03Feb2017_ver2-v2/merged/V08-00-18/merged_ntuple_99.root
p196
aV/nfs-7/userdata/dataTuple/kludge/Run2016B_JetHT_MINIAOD_03Feb2017_ver2-v2/merged/V08-00-18/merged_ntuple_100.root
p197
aV/nfs-7/userdata/dataTuple/kludge/Run2016B_JetHT_MINIAOD_03Feb2017_ver2-v2/merged/V08-00-18/merged_ntuple_101.root
p198
aV/nfs-7/userdata/dataTuple/kludge/Run2016B_JetHT_MINIAOD_03Feb2017_ver2-v2/merged/V08-00-18/merged_ntuple_102.root
p199
aV/nfs-7/userdata/dataTuple/kludge/Run2016B_JetHT_MINIAOD_03Feb2017_ver2-v2/merged/V08-00-18/merged_ntuple_103.root
p200
aV/nfs-7/userdata/dataTuple/kludge/Run2016B_JetHT_MINIAOD_03Feb2017_ver2-v2/merged/V08-00-18/merged_ntuple_104.root
p201
aV/nfs-7/userdata/dataTuple/kludge/Run2016B_JetHT_MINIAOD_03Feb2017_ver2-v2/merged/V08-00-18/merged_ntuple_105.root
p202
aV/nfs-7/userdata/dataTuple/kludge/Run2016B_JetHT_MINIAOD_03Feb2017_ver2-v2/merged/V08-00-18/merged_ntuple_106.root
p203
aV/nfs-7/userdata/dataTuple/kludge/Run2016B_JetHT_MINIAOD_03Feb2017_ver2-v2/merged/V08-00-18/merged_ntuple_107.root
p204
aV/nfs-7/userdata/dataTuple/kludge/Run2016B_JetHT_MINIAOD_03Feb2017_ver2-v2/merged/V08-00-18/merged_ntuple_108.root
p205
aV/nfs-7/userdata/dataTuple/kludge/Run2016B_JetHT_MINIAOD_03Feb2017_ver2-v2/merged/V08-00-18/merged_ntuple_109.root
p206
aV/nfs-7/userdata/dataTuple/kludge/Run2016B_JetHT_MINIAOD_03Feb2017_ver2-v2/merged/V08-00-18/merged_ntuple_110.root
p207
aV/nfs-7/userdata/dataTuple/kludge/Run2016B_JetHT_MINIAOD_03Feb2017_ver2-v2/merged/V08-00-18/merged_ntuple_111.root
p208
aV/nfs-7/userdata/dataTuple/kludge/Run2016B_JetHT_MINIAOD_03Feb2017_ver2-v2/merged/V08-00-18/merged_ntuple_112.root
p209
aV/nfs-7/userdata/dataTuple/kludge/Run2016B_JetHT_MINIAOD_03Feb2017_ver2-v2/merged/V08-00-18/merged_ntuple_113.root
p210
aV/nfs-7/userdata/dataTuple/kludge/Run2016B_JetHT_MINIAOD_03Feb2017_ver2-v2/merged/V08-00-18/merged_ntuple_114.root
p211
aV/nfs-7/userdata/dataTuple/kludge/Run2016B_JetHT_MINIAOD_03Feb2017_ver2-v2/merged/V08-00-18/merged_ntuple_115.root
p212
aV/nfs-7/userdata/dataTuple/kludge/Run2016B_JetHT_MINIAOD_03Feb2017_ver2-v2/merged/V08-00-18/merged_ntuple_116.root
p213
aV/nfs-7/userdata/dataTuple/kludge/Run2016B_JetHT_MINIAOD_03Feb2017_ver2-v2/merged/V08-00-18/merged_ntuple_117.root
p214
aV/nfs-7/userdata/dataTuple/kludge/Run2016B_JetHT_MINIAOD_03Feb2017_ver2-v2/merged/V08-00-18/merged_ntuple_118.root
p215
aV/nfs-7/userdata/dataTuple/kludge/Run2016B_JetHT_MINIAOD_03Feb2017_ver2-v2/merged/V08-00-18/merged_ntuple_119.root
p216
aV/nfs-7/userdata/dataTuple/kludge/Run2016B_JetHT_MINIAOD_03Feb2017_ver2-v2/merged/V08-00-18/merged_ntuple_120.root
p217
aV/nfs-7/userdata/dataTuple/kludge/Run2016B_JetHT_MINIAOD_03Feb2017_ver2-v2/merged/V08-00-18/merged_ntuple_121.root
p218
aV/nfs-7/userdata/dataTuple/kludge/Run2016B_JetHT_MINIAOD_03Feb2017_ver2-v2/merged/V08-00-18/merged_ntuple_122.root
p219
aV/nfs-7/userdata/dataTuple/kludge/Run2016B_JetHT_MINIAOD_03Feb2017_ver2-v2/merged/V08-00-18/merged_ntuple_123.root
p220
aV/nfs-7/userdata/dataTuple/kludge/Run2016B_JetHT_MINIAOD_03Feb2017_ver2-v2/merged/V08-00-18/merged_ntuple_124.root
p221
aV/nfs-7/userdata/dataTuple/kludge/Run2016B_JetHT_MINIAOD_03Feb2017_ver2-v2/merged/V08-00-18/merged_ntuple_125.root
p222
aV/nfs-7/userdata/dataTuple/kludge/Run2016B_JetHT_MINIAOD_03Feb2017_ver2-v2/merged/V08-00-18/merged_ntuple_126.root
p223
aV/nfs-7/userdata/dataTuple/kludge/Run2016B_JetHT_MINIAOD_03Feb2017_ver2-v2/merged/V08-00-18/merged_ntuple_127.root
p224
aV/nfs-7/userdata/dataTuple/kludge/Run2016B_JetHT_MINIAOD_03Feb2017_ver2-v2/merged/V08-00-18/merged_ntuple_128.root
p225
aV/nfs-7/userdata/dataTuple/kludge/Run2016B_JetHT_MINIAOD_03Feb2017_ver2-v2/merged/V08-00-18/merged_ntuple_129.root
p226
aV/nfs-7/userdata/dataTuple/kludge/Run2016B_JetHT_MINIAOD_03Feb2017_ver2-v2/merged/V08-00-18/merged_ntuple_130.root
p227
aV/nfs-7/userdata/dataTuple/kludge/Run2016B_JetHT_MINIAOD_03Feb2017_ver2-v2/merged/V08-00-18/merged_ntuple_131.root
p228
aV/nfs-7/userdata/dataTuple/kludge/Run2016B_JetHT_MINIAOD_03Feb2017_ver2-v2/merged/V08-00-18/merged_ntuple_132.root
p229
aV/nfs-7/userdata/dataTuple/kludge/Run2016B_JetHT_MINIAOD_03Feb2017_ver2-v2/merged/V08-00-18/merged_ntuple_133.root
p230
aV/nfs-7/userdata/dataTuple/kludge/Run2016B_JetHT_MINIAOD_03Feb2017_ver2-v2/merged/V08-00-18/merged_ntuple_134.root
p231
aV/nfs-7/userdata/dataTuple/kludge/Run2016B_JetHT_MINIAOD_03Feb2017_ver2-v2/merged/V08-00-18/merged_ntuple_135.root
p232
aV/nfs-7/userdata/dataTuple/kludge/Run2016B_JetHT_MINIAOD_03Feb2017_ver2-v2/merged/V08-00-18/merged_ntuple_136.root
p233
aV/nfs-7/userdata/dataTuple/kludge/Run2016B_JetHT_MINIAOD_03Feb2017_ver2-v2/merged/V08-00-18/merged_ntuple_137.root
p234
aV/nfs-7/userdata/dataTuple/kludge/Run2016B_JetHT_MINIAOD_03Feb2017_ver2-v2/merged/V08-00-18/merged_ntuple_138.root
p235
aV/nfs-7/userdata/dataTuple/kludge/Run2016B_JetHT_MINIAOD_03Feb2017_ver2-v2/merged/V08-00-18/merged_ntuple_139.root
p236
aV/nfs-7/userdata/dataTuple/kludge/Run2016B_JetHT_MINIAOD_03Feb2017_ver2-v2/merged/V08-00-18/merged_ntuple_140.root
p237
aV/nfs-7/userdata/dataTuple/kludge/Run2016B_JetHT_MINIAOD_03Feb2017_ver2-v2/merged/V08-00-18/merged_ntuple_141.root
p238
aV/nfs-7/userdata/dataTuple/kludge/Run2016B_JetHT_MINIAOD_03Feb2017_ver2-v2/merged/V08-00-18/merged_ntuple_142.root
p239
aV/nfs-7/userdata/dataTuple/kludge/Run2016B_JetHT_MINIAOD_03Feb2017_ver2-v2/merged/V08-00-18/merged_ntuple_143.root
p240
aV/nfs-7/userdata/dataTuple/kludge/Run2016B_JetHT_MINIAOD_03Feb2017_ver2-v2/merged/V08-00-18/merged_ntuple_144.root
p241
aV/nfs-7/userdata/dataTuple/kludge/Run2016B_JetHT_MINIAOD_03Feb2017_ver2-v2/merged/V08-00-18/merged_ntuple_145.root
p242
aV/nfs-7/userdata/dataTuple/kludge/Run2016B_JetHT_MINIAOD_03Feb2017_ver2-v2/merged/V08-00-18/merged_ntuple_146.root
p243
aV/nfs-7/userdata/dataTuple/kludge/Run2016B_JetHT_MINIAOD_03Feb2017_ver2-v2/merged/V08-00-18/merged_ntuple_147.root
p244
aV/nfs-7/userdata/dataTuple/kludge/Run2016B_JetHT_MINIAOD_03Feb2017_ver2-v2/merged/V08-00-18/merged_ntuple_148.root
p245
aV/nfs-7/userdata/dataTuple/kludge/Run2016B_JetHT_MINIAOD_03Feb2017_ver2-v2/merged/V08-00-18/merged_ntuple_149.root
p246
aV/nfs-7/userdata/dataTuple/kludge/Run2016B_JetHT_MINIAOD_03Feb2017_ver2-v2/merged/V08-00-18/merged_ntuple_150.root
p247
aV/nfs-7/userdata/dataTuple/kludge/Run2016B_JetHT_MINIAOD_03Feb2017_ver2-v2/merged/V08-00-18/merged_ntuple_151.root
p248
aV/nfs-7/userdata/dataTuple/kludge/Run2016B_JetHT_MINIAOD_03Feb2017_ver2-v2/merged/V08-00-18/merged_ntuple_152.root
p249
aV/nfs-7/userdata/dataTuple/kludge/Run2016B_JetHT_MINIAOD_03Feb2017_ver2-v2/merged/V08-00-18/merged_ntuple_153.root
p250
aV/nfs-7/userdata/dataTuple/kludge/Run2016B_JetHT_MINIAOD_03Feb2017_ver2-v2/merged/V08-00-18/merged_ntuple_154.root
p251
aV/nfs-7/userdata/dataTuple/kludge/Run2016B_JetHT_MINIAOD_03Feb2017_ver2-v2/merged/V08-00-18/merged_ntuple_155.root
p252
aV/nfs-7/userdata/dataTuple/kludge/Run2016B_JetHT_MINIAOD_03Feb2017_ver2-v2/merged/V08-00-18/merged_ntuple_156.root
p253
aV/nfs-7/userdata/dataTuple/kludge/Run2016B_JetHT_MINIAOD_03Feb2017_ver2-v2/merged/V08-00-18/merged_ntuple_157.root
p254
aV/nfs-7/userdata/dataTuple/kludge/Run2016B_JetHT_MINIAOD_03Feb2017_ver2-v2/merged/V08-00-18/merged_ntuple_158.root
p255
aV/nfs-7/userdata/dataTuple/kludge/Run2016B_JetHT_MINIAOD_03Feb2017_ver2-v2/merged/V08-00-18/merged_ntuple_159.root
p256
aV/nfs-7/userdata/dataTuple/kludge/Run2016B_JetHT_MINIAOD_03Feb2017_ver2-v2/merged/V08-00-18/merged_ntuple_160.root
p257
aV/nfs-7/userdata/dataTuple/kludge/Run2016B_JetHT_MINIAOD_03Feb2017_ver2-v2/merged/V08-00-18/merged_ntuple_161.root
p258
aV/nfs-7/userdata/dataTuple/kludge/Run2016B_JetHT_MINIAOD_03Feb2017_ver2-v2/merged/V08-00-18/merged_ntuple_162.root
p259
aV/nfs-7/userdata/dataTuple/kludge/Run2016B_JetHT_MINIAOD_03Feb2017_ver2-v2/merged/V08-00-18/merged_ntuple_163.root
p260
aV/nfs-7/userdata/dataTuple/kludge/Run2016B_JetHT_MINIAOD_03Feb2017_ver2-v2/merged/V08-00-18/merged_ntuple_164.root
p261
aV/nfs-7/userdata/dataTuple/kludge/Run2016B_JetHT_MINIAOD_03Feb2017_ver2-v2/merged/V08-00-18/merged_ntuple_165.root
p262
aV/nfs-7/userdata/dataTuple/kludge/Run2016B_JetHT_MINIAOD_03Feb2017_ver2-v2/merged/V08-00-18/merged_ntuple_166.root
p263
aV/nfs-7/userdata/dataTuple/kludge/Run2016B_JetHT_MINIAOD_03Feb2017_ver2-v2/merged/V08-00-18/merged_ntuple_167.root
p264
aV/nfs-7/userdata/dataTuple/kludge/Run2016B_JetHT_MINIAOD_03Feb2017_ver2-v2/merged/V08-00-18/merged_ntuple_168.root
p265
aV/nfs-7/userdata/dataTuple/kludge/Run2016B_JetHT_MINIAOD_03Feb2017_ver2-v2/merged/V08-00-18/merged_ntuple_169.root
p266
aV/nfs-7/userdata/dataTuple/kludge/Run2016B_JetHT_MINIAOD_03Feb2017_ver2-v2/merged/V08-00-18/merged_ntuple_170.root
p267
aV/nfs-7/userdata/dataTuple/kludge/Run2016B_JetHT_MINIAOD_03Feb2017_ver2-v2/merged/V08-00-18/merged_ntuple_171.root
p268
aV/nfs-7/userdata/dataTuple/kludge/Run2016B_JetHT_MINIAOD_03Feb2017_ver2-v2/merged/V08-00-18/merged_ntuple_172.root
p269
aV/nfs-7/userdata/dataTuple/kludge/Run2016B_JetHT_MINIAOD_03Feb2017_ver2-v2/merged/V08-00-18/merged_ntuple_173.root
p270
aV/nfs-7/userdata/dataTuple/kludge/Run2016B_JetHT_MINIAOD_03Feb2017_ver2-v2/merged/V08-00-18/merged_ntuple_174.root
p271
aV/nfs-7/userdata/dataTuple/kludge/Run2016B_JetHT_MINIAOD_03Feb2017_ver2-v2/merged/V08-00-18/merged_ntuple_175.root
p272
aV/nfs-7/userdata/dataTuple/kludge/Run2016B_JetHT_MINIAOD_03Feb2017_ver2-v2/merged/V08-00-18/merged_ntuple_176.root
p273
aV/nfs-7/userdata/dataTuple/kludge/Run2016B_JetHT_MINIAOD_03Feb2017_ver2-v2/merged/V08-00-18/merged_ntuple_177.root
p274
aV/nfs-7/userdata/dataTuple/kludge/Run2016B_JetHT_MINIAOD_03Feb2017_ver2-v2/merged/V08-00-18/merged_ntuple_178.root
p275
aV/nfs-7/userdata/dataTuple/kludge/Run2016B_JetHT_MINIAOD_03Feb2017_ver2-v2/merged/V08-00-18/merged_ntuple_179.root
p276
aV/nfs-7/userdata/dataTuple/kludge/Run2016B_JetHT_MINIAOD_03Feb2017_ver2-v2/merged/V08-00-18/merged_ntuple_180.root
p277
aV/nfs-7/userdata/dataTuple/kludge/Run2016B_JetHT_MINIAOD_03Feb2017_ver2-v2/merged/V08-00-18/merged_ntuple_181.root
p278
aV/nfs-7/userdata/dataTuple/kludge/Run2016B_JetHT_MINIAOD_03Feb2017_ver2-v2/merged/V08-00-18/merged_ntuple_182.root
p279
aV/nfs-7/userdata/dataTuple/kludge/Run2016B_JetHT_MINIAOD_03Feb2017_ver2-v2/merged/V08-00-18/merged_ntuple_183.root
p280
aV/nfs-7/userdata/dataTuple/kludge/Run2016B_JetHT_MINIAOD_03Feb2017_ver2-v2/merged/V08-00-18/merged_ntuple_184.root
p281
aV/nfs-7/userdata/dataTuple/kludge/Run2016B_JetHT_MINIAOD_03Feb2017_ver2-v2/merged/V08-00-18/merged_ntuple_185.root
p282
aV/nfs-7/userdata/dataTuple/kludge/Run2016B_JetHT_MINIAOD_03Feb2017_ver2-v2/merged/V08-00-18/merged_ntuple_186.root
p283
aV/nfs-7/userdata/dataTuple/kludge/Run2016B_JetHT_MINIAOD_03Feb2017_ver2-v2/merged/V08-00-18/merged_ntuple_187.root
p284
aV/nfs-7/userdata/dataTuple/kludge/Run2016B_JetHT_MINIAOD_03Feb2017_ver2-v2/merged/V08-00-18/merged_ntuple_188.root
p285
aV/nfs-7/userdata/dataTuple/kludge/Run2016B_JetHT_MINIAOD_03Feb2017_ver2-v2/merged/V08-00-18/merged_ntuple_189.root
p286
aV/nfs-7/userdata/dataTuple/kludge/Run2016B_JetHT_MINIAOD_03Feb2017_ver2-v2/merged/V08-00-18/merged_ntuple_190.root
p287
aV/nfs-7/userdata/dataTuple/kludge/Run2016B_JetHT_MINIAOD_03Feb2017_ver2-v2/merged/V08-00-18/merged_ntuple_191.root
p288
aV/nfs-7/userdata/dataTuple/kludge/Run2016B_JetHT_MINIAOD_03Feb2017_ver2-v2/merged/V08-00-18/merged_ntuple_192.root
p289
aV/nfs-7/userdata/dataTuple/kludge/Run2016B_JetHT_MINIAOD_03Feb2017_ver2-v2/merged/V08-00-18/merged_ntuple_193.root
p290
aV/nfs-7/userdata/dataTuple/kludge/Run2016B_JetHT_MINIAOD_03Feb2017_ver2-v2/merged/V08-00-18/merged_ntuple_194.root
p291
aV/nfs-7/userdata/dataTuple/kludge/Run2016B_JetHT_MINIAOD_03Feb2017_ver2-v2/merged/V08-00-18/merged_ntuple_195.root
p292
aV/nfs-7/userdata/dataTuple/kludge/Run2016B_JetHT_MINIAOD_03Feb2017_ver2-v2/merged/V08-00-18/merged_ntuple_196.root
p293
aV/nfs-7/userdata/dataTuple/kludge/Run2016B_JetHT_MINIAOD_03Feb2017_ver2-v2/merged/V08-00-18/merged_ntuple_197.root
p294
aV/nfs-7/userdata/dataTuple/kludge/Run2016B_JetHT_MINIAOD_03Feb2017_ver2-v2/merged/V08-00-18/merged_ntuple_198.root
p295
aV/nfs-7/userdata/dataTuple/kludge/Run2016B_JetHT_MINIAOD_03Feb2017_ver2-v2/merged/V08-00-18/merged_ntuple_199.root
p296
aV/nfs-7/userdata/dataTuple/kludge/Run2016B_JetHT_MINIAOD_03Feb2017_ver2-v2/merged/V08-00-18/merged_ntuple_200.root
p297
aV/nfs-7/userdata/dataTuple/kludge/Run2016B_JetHT_MINIAOD_03Feb2017_ver2-v2/merged/V08-00-18/merged_ntuple_201.root
p298
aV/nfs-7/userdata/dataTuple/kludge/Run2016B_JetHT_MINIAOD_03Feb2017_ver2-v2/merged/V08-00-18/merged_ntuple_202.root
p299
aV/nfs-7/userdata/dataTuple/kludge/Run2016B_JetHT_MINIAOD_03Feb2017_ver2-v2/merged/V08-00-18/merged_ntuple_203.root
p300
aV/nfs-7/userdata/dataTuple/kludge/Run2016B_JetHT_MINIAOD_03Feb2017_ver2-v2/merged/V08-00-18/merged_ntuple_204.root
p301
aV/nfs-7/userdata/dataTuple/kludge/Run2016B_JetHT_MINIAOD_03Feb2017_ver2-v2/merged/V08-00-18/merged_ntuple_205.root
p302
aV/nfs-7/userdata/dataTuple/kludge/Run2016B_JetHT_MINIAOD_03Feb2017_ver2-v2/merged/V08-00-18/merged_ntuple_206.root
p303
aV/nfs-7/userdata/dataTuple/kludge/Run2016B_JetHT_MINIAOD_03Feb2017_ver2-v2/merged/V08-00-18/merged_ntuple_207.root
p304
aV/nfs-7/userdata/dataTuple/kludge/Run2016B_JetHT_MINIAOD_03Feb2017_ver2-v2/merged/V08-00-18/merged_ntuple_208.root
p305
aV/nfs-7/userdata/dataTuple/kludge/Run2016B_JetHT_MINIAOD_03Feb2017_ver2-v2/merged/V08-00-18/merged_ntuple_209.root
p306
aV/nfs-7/userdata/dataTuple/kludge/Run2016B_JetHT_MINIAOD_03Feb2017_ver2-v2/merged/V08-00-18/merged_ntuple_210.root
p307
aV/nfs-7/userdata/dataTuple/kludge/Run2016B_JetHT_MINIAOD_03Feb2017_ver2-v2/merged/V08-00-18/merged_ntuple_211.root
p308
aV/nfs-7/userdata/dataTuple/kludge/Run2016B_JetHT_MINIAOD_03Feb2017_ver2-v2/merged/V08-00-18/merged_ntuple_212.root
p309
aV/nfs-7/userdata/dataTuple/kludge/Run2016B_JetHT_MINIAOD_03Feb2017_ver2-v2/merged/V08-00-18/merged_ntuple_213.root
p310
aV/nfs-7/userdata/dataTuple/kludge/Run2016B_JetHT_MINIAOD_03Feb2017_ver2-v2/merged/V08-00-18/merged_ntuple_214.root
p311
aV/nfs-7/userdata/dataTuple/kludge/Run2016B_JetHT_MINIAOD_03Feb2017_ver2-v2/merged/V08-00-18/merged_ntuple_215.root
p312
aV/nfs-7/userdata/dataTuple/kludge/Run2016B_JetHT_MINIAOD_03Feb2017_ver2-v2/merged/V08-00-18/merged_ntuple_216.root
p313
aV/nfs-7/userdata/dataTuple/kludge/Run2016B_JetHT_MINIAOD_03Feb2017_ver2-v2/merged/V08-00-18/merged_ntuple_217.root
p314
aV/nfs-7/userdata/dataTuple/kludge/Run2016B_JetHT_MINIAOD_03Feb2017_ver2-v2/merged/V08-00-18/merged_ntuple_218.root
p315
aV/nfs-7/userdata/dataTuple/kludge/Run2016B_JetHT_MINIAOD_03Feb2017_ver2-v2/merged/V08-00-18/merged_ntuple_219.root
p316
aV/nfs-7/userdata/dataTuple/kludge/Run2016B_JetHT_MINIAOD_03Feb2017_ver2-v2/merged/V08-00-18/merged_ntuple_220.root
p317
aV/nfs-7/userdata/dataTuple/kludge/Run2016B_JetHT_MINIAOD_03Feb2017_ver2-v2/merged/V08-00-18/merged_ntuple_221.root
p318
aV/nfs-7/userdata/dataTuple/kludge/Run2016B_JetHT_MINIAOD_03Feb2017_ver2-v2/merged/V08-00-18/merged_ntuple_222.root
p319
aV/nfs-7/userdata/dataTuple/kludge/Run2016B_JetHT_MINIAOD_03Feb2017_ver2-v2/merged/V08-00-18/merged_ntuple_223.root
p320
aV/nfs-7/userdata/dataTuple/kludge/Run2016B_JetHT_MINIAOD_03Feb2017_ver2-v2/merged/V08-00-18/merged_ntuple_224.root
p321
aV/nfs-7/userdata/dataTuple/kludge/Run2016B_JetHT_MINIAOD_03Feb2017_ver2-v2/merged/V08-00-18/merged_ntuple_225.root
p322
aV/nfs-7/userdata/dataTuple/kludge/Run2016B_JetHT_MINIAOD_03Feb2017_ver2-v2/merged/V08-00-18/merged_ntuple_226.root
p323
aV/nfs-7/userdata/dataTuple/kludge/Run2016B_JetHT_MINIAOD_03Feb2017_ver2-v2/merged/V08-00-18/merged_ntuple_227.root
p324
aV/nfs-7/userdata/dataTuple/kludge/Run2016B_JetHT_MINIAOD_03Feb2017_ver2-v2/merged/V08-00-18/merged_ntuple_228.root
p325
aV/nfs-7/userdata/dataTuple/kludge/Run2016B_JetHT_MINIAOD_03Feb2017_ver2-v2/merged/V08-00-18/merged_ntuple_229.root
p326
aV/nfs-7/userdata/dataTuple/kludge/Run2016B_JetHT_MINIAOD_03Feb2017_ver2-v2/merged/V08-00-18/merged_ntuple_230.root
p327
aV/nfs-7/userdata/dataTuple/kludge/Run2016B_JetHT_MINIAOD_03Feb2017_ver2-v2/merged/V08-00-18/merged_ntuple_231.root
p328
aV/nfs-7/userdata/dataTuple/kludge/Run2016B_JetHT_MINIAOD_03Feb2017_ver2-v2/merged/V08-00-18/merged_ntuple_232.root
p329
aV/nfs-7/userdata/dataTuple/kludge/Run2016B_JetHT_MINIAOD_03Feb2017_ver2-v2/merged/V08-00-18/merged_ntuple_233.root
p330
aV/nfs-7/userdata/dataTuple/kludge/Run2016B_JetHT_MINIAOD_03Feb2017_ver2-v2/merged/V08-00-18/merged_ntuple_234.root
p331
aV/nfs-7/userdata/dataTuple/kludge/Run2016B_JetHT_MINIAOD_03Feb2017_ver2-v2/merged/V08-00-18/merged_ntuple_235.root
p332
aV/nfs-7/userdata/dataTuple/kludge/Run2016B_JetHT_MINIAOD_03Feb2017_ver2-v2/merged/V08-00-18/merged_ntuple_236.root
p333
aV/nfs-7/userdata/dataTuple/kludge/Run2016B_JetHT_MINIAOD_03Feb2017_ver2-v2/merged/V08-00-18/merged_ntuple_237.root
p334
aV/nfs-7/userdata/dataTuple/kludge/Run2016B_JetHT_MINIAOD_03Feb2017_ver2-v2/merged/V08-00-18/merged_ntuple_238.root
p335
aV/nfs-7/userdata/dataTuple/kludge/Run2016B_JetHT_MINIAOD_03Feb2017_ver2-v2/merged/V08-00-18/merged_ntuple_239.root
p336
aV/nfs-7/userdata/dataTuple/kludge/Run2016B_JetHT_MINIAOD_03Feb2017_ver2-v2/merged/V08-00-18/merged_ntuple_240.root
p337
aV/nfs-7/userdata/dataTuple/kludge/Run2016B_JetHT_MINIAOD_03Feb2017_ver2-v2/merged/V08-00-18/merged_ntuple_241.root
p338
aV/nfs-7/userdata/dataTuple/kludge/Run2016B_JetHT_MINIAOD_03Feb2017_ver2-v2/merged/V08-00-18/merged_ntuple_242.root
p339
aV/nfs-7/userdata/dataTuple/kludge/Run2016B_JetHT_MINIAOD_03Feb2017_ver2-v2/merged/V08-00-18/merged_ntuple_243.root
p340
aV/nfs-7/userdata/dataTuple/kludge/Run2016B_JetHT_MINIAOD_03Feb2017_ver2-v2/merged/V08-00-18/merged_ntuple_244.root
p341
aV/nfs-7/userdata/dataTuple/kludge/Run2016B_JetHT_MINIAOD_03Feb2017_ver2-v2/merged/V08-00-18/merged_ntuple_245.root
p342
aV/nfs-7/userdata/dataTuple/kludge/Run2016B_JetHT_MINIAOD_03Feb2017_ver2-v2/merged/V08-00-18/merged_ntuple_246.root
p343
aV/nfs-7/userdata/dataTuple/kludge/Run2016B_JetHT_MINIAOD_03Feb2017_ver2-v2/merged/V08-00-18/merged_ntuple_247.root
p344
aV/nfs-7/userdata/dataTuple/kludge/Run2016B_JetHT_MINIAOD_03Feb2017_ver2-v2/merged/V08-00-18/merged_ntuple_248.root
p345
aV/nfs-7/userdata/dataTuple/kludge/Run2016B_JetHT_MINIAOD_03Feb2017_ver2-v2/merged/V08-00-18/merged_ntuple_249.root
p346
aV/nfs-7/userdata/dataTuple/kludge/Run2016B_JetHT_MINIAOD_03Feb2017_ver2-v2/merged/V08-00-18/merged_ntuple_250.root
p347
aV/nfs-7/userdata/dataTuple/kludge/Run2016B_JetHT_MINIAOD_03Feb2017_ver2-v2/merged/V08-00-18/merged_ntuple_251.root
p348
aV/nfs-7/userdata/dataTuple/kludge/Run2016B_JetHT_MINIAOD_03Feb2017_ver2-v2/merged/V08-00-18/merged_ntuple_252.root
p349
aV/nfs-7/userdata/dataTuple/kludge/Run2016B_JetHT_MINIAOD_03Feb2017_ver2-v2/merged/V08-00-18/merged_ntuple_253.root
p350
aV/nfs-7/userdata/dataTuple/kludge/Run2016B_JetHT_MINIAOD_03Feb2017_ver2-v2/merged/V08-00-18/merged_ntuple_254.root
p351
aV/nfs-7/userdata/dataTuple/kludge/Run2016B_JetHT_MINIAOD_03Feb2017_ver2-v2/merged/V08-00-18/merged_ntuple_255.root
p352
aV/nfs-7/userdata/dataTuple/kludge/Run2016B_JetHT_MINIAOD_03Feb2017_ver2-v2/merged/V08-00-18/merged_ntuple_256.root
p353
aV/nfs-7/userdata/dataTuple/kludge/Run2016B_JetHT_MINIAOD_03Feb2017_ver2-v2/merged/V08-00-18/merged_ntuple_257.root
p354
aV/nfs-7/userdata/dataTuple/kludge/Run2016B_JetHT_MINIAOD_03Feb2017_ver2-v2/merged/V08-00-18/merged_ntuple_258.root
p355
aV/nfs-7/userdata/dataTuple/kludge/Run2016B_JetHT_MINIAOD_03Feb2017_ver2-v2/merged/V08-00-18/merged_ntuple_259.root
p356
aV/nfs-7/userdata/dataTuple/kludge/Run2016B_JetHT_MINIAOD_03Feb2017_ver2-v2/merged/V08-00-18/merged_ntuple_260.root
p357
aV/nfs-7/userdata/dataTuple/kludge/Run2016B_JetHT_MINIAOD_03Feb2017_ver2-v2/merged/V08-00-18/merged_ntuple_261.root
p358
aV/nfs-7/userdata/dataTuple/kludge/Run2016B_JetHT_MINIAOD_03Feb2017_ver2-v2/merged/V08-00-18/merged_ntuple_262.root
p359
aV/nfs-7/userdata/dataTuple/kludge/Run2016B_JetHT_MINIAOD_03Feb2017_ver2-v2/merged/V08-00-18/merged_ntuple_263.root
p360
aV/nfs-7/userdata/dataTuple/kludge/Run2016B_JetHT_MINIAOD_03Feb2017_ver2-v2/merged/V08-00-18/merged_ntuple_264.root
p361
aV/nfs-7/userdata/dataTuple/kludge/Run2016B_JetHT_MINIAOD_03Feb2017_ver2-v2/merged/V08-00-18/merged_ntuple_265.root
p362
aV/nfs-7/userdata/dataTuple/kludge/Run2016B_JetHT_MINIAOD_03Feb2017_ver2-v2/merged/V08-00-18/merged_ntuple_266.root
p363
aV/nfs-7/userdata/dataTuple/kludge/Run2016B_JetHT_MINIAOD_03Feb2017_ver2-v2/merged/V08-00-18/merged_ntuple_267.root
p364
aV/nfs-7/userdata/dataTuple/kludge/Run2016B_JetHT_MINIAOD_03Feb2017_ver2-v2/merged/V08-00-18/merged_ntuple_268.root
p365
aV/nfs-7/userdata/dataTuple/kludge/Run2016B_JetHT_MINIAOD_03Feb2017_ver2-v2/merged/V08-00-18/merged_ntuple_269.root
p366
aV/nfs-7/userdata/dataTuple/kludge/Run2016B_JetHT_MINIAOD_03Feb2017_ver2-v2/merged/V08-00-18/merged_ntuple_270.root
p367
aV/nfs-7/userdata/dataTuple/kludge/Run2016B_JetHT_MINIAOD_03Feb2017_ver2-v2/merged/V08-00-18/merged_ntuple_271.root
p368
aV/nfs-7/userdata/dataTuple/kludge/Run2016B_JetHT_MINIAOD_03Feb2017_ver2-v2/merged/V08-00-18/merged_ntuple_272.root
p369
aV/nfs-7/userdata/dataTuple/kludge/Run2016B_JetHT_MINIAOD_03Feb2017_ver2-v2/merged/V08-00-18/merged_ntuple_273.root
p370
aV/nfs-7/userdata/dataTuple/kludge/Run2016B_JetHT_MINIAOD_03Feb2017_ver2-v2/merged/V08-00-18/merged_ntuple_274.root
p371
aV/nfs-7/userdata/dataTuple/kludge/Run2016B_JetHT_MINIAOD_03Feb2017_ver2-v2/merged/V08-00-18/merged_ntuple_275.root
p372
aV/nfs-7/userdata/dataTuple/kludge/Run2016B_JetHT_MINIAOD_03Feb2017_ver2-v2/merged/V08-00-18/merged_ntuple_276.root
p373
aV/nfs-7/userdata/dataTuple/kludge/Run2016B_JetHT_MINIAOD_03Feb2017_ver2-v2/merged/V08-00-18/merged_ntuple_277.root
p374
aV/nfs-7/userdata/dataTuple/kludge/Run2016B_JetHT_MINIAOD_03Feb2017_ver2-v2/merged/V08-00-18/merged_ntuple_278.root
p375
aV/nfs-7/userdata/dataTuple/kludge/Run2016B_JetHT_MINIAOD_03Feb2017_ver2-v2/merged/V08-00-18/merged_ntuple_279.root
p376
aV/nfs-7/userdata/dataTuple/kludge/Run2016B_JetHT_MINIAOD_03Feb2017_ver2-v2/merged/V08-00-18/merged_ntuple_280.root
p377
aV/nfs-7/userdata/dataTuple/kludge/Run2016B_JetHT_MINIAOD_03Feb2017_ver2-v2/merged/V08-00-18/merged_ntuple_281.root
p378
aV/nfs-7/userdata/dataTuple/kludge/Run2016B_JetHT_MINIAOD_03Feb2017_ver2-v2/merged/V08-00-18/merged_ntuple_282.root
p379
aV/nfs-7/userdata/dataTuple/kludge/Run2016B_JetHT_MINIAOD_03Feb2017_ver2-v2/merged/V08-00-18/merged_ntuple_283.root
p380
aV/nfs-7/userdata/dataTuple/kludge/Run2016B_JetHT_MINIAOD_03Feb2017_ver2-v2/merged/V08-00-18/merged_ntuple_284.root
p381
aV/nfs-7/userdata/dataTuple/kludge/Run2016B_JetHT_MINIAOD_03Feb2017_ver2-v2/merged/V08-00-18/merged_ntuple_285.root
p382
aV/nfs-7/userdata/dataTuple/kludge/Run2016B_JetHT_MINIAOD_03Feb2017_ver2-v2/merged/V08-00-18/merged_ntuple_286.root
p383
aV/nfs-7/userdata/dataTuple/kludge/Run2016B_JetHT_MINIAOD_03Feb2017_ver2-v2/merged/V08-00-18/merged_ntuple_287.root
p384
aV/nfs-7/userdata/dataTuple/kludge/Run2016B_JetHT_MINIAOD_03Feb2017_ver2-v2/merged/V08-00-18/merged_ntuple_288.root
p385
aV/nfs-7/userdata/dataTuple/kludge/Run2016B_JetHT_MINIAOD_03Feb2017_ver2-v2/merged/V08-00-18/merged_ntuple_289.root
p386
aV/nfs-7/userdata/dataTuple/kludge/Run2016B_JetHT_MINIAOD_03Feb2017_ver2-v2/merged/V08-00-18/merged_ntuple_290.root
p387
aV/nfs-7/userdata/dataTuple/kludge/Run2016B_JetHT_MINIAOD_03Feb2017_ver2-v2/merged/V08-00-18/merged_ntuple_291.root
p388
aV/nfs-7/userdata/dataTuple/kludge/Run2016B_JetHT_MINIAOD_03Feb2017_ver2-v2/merged/V08-00-18/merged_ntuple_292.root
p389
aV/nfs-7/userdata/dataTuple/kludge/Run2016B_JetHT_MINIAOD_03Feb2017_ver2-v2/merged/V08-00-18/merged_ntuple_293.root
p390
aV/nfs-7/userdata/dataTuple/kludge/Run2016B_JetHT_MINIAOD_03Feb2017_ver2-v2/merged/V08-00-18/merged_ntuple_294.root
p391
aV/nfs-7/userdata/dataTuple/kludge/Run2016B_JetHT_MINIAOD_03Feb2017_ver2-v2/merged/V08-00-18/merged_ntuple_295.root
p392
aV/nfs-7/userdata/dataTuple/kludge/Run2016B_JetHT_MINIAOD_03Feb2017_ver2-v2/merged/V08-00-18/merged_ntuple_296.root
p393
aV/nfs-7/userdata/dataTuple/kludge/Run2016B_JetHT_MINIAOD_03Feb2017_ver2-v2/merged/V08-00-18/merged_ntuple_297.root
p394
aV/nfs-7/userdata/dataTuple/kludge/Run2016B_JetHT_MINIAOD_03Feb2017_ver2-v2/merged/V08-00-18/merged_ntuple_298.root
p395
aV/nfs-7/userdata/dataTuple/kludge/Run2016B_JetHT_MINIAOD_03Feb2017_ver2-v2/merged/V08-00-18/merged_ntuple_299.root
p396
aV/nfs-7/userdata/dataTuple/kludge/Run2016B_JetHT_MINIAOD_03Feb2017_ver2-v2/merged/V08-00-18/merged_ntuple_300.root
p397
aV/nfs-7/userdata/dataTuple/kludge/Run2016B_JetHT_MINIAOD_03Feb2017_ver2-v2/merged/V08-00-18/merged_ntuple_301.root
p398
aV/nfs-7/userdata/dataTuple/kludge/Run2016B_JetHT_MINIAOD_03Feb2017_ver2-v2/merged/V08-00-18/merged_ntuple_302.root
p399
aV/nfs-7/userdata/dataTuple/kludge/Run2016B_JetHT_MINIAOD_03Feb2017_ver2-v2/merged/V08-00-18/merged_ntuple_303.root
p400
aV/nfs-7/userdata/dataTuple/kludge/Run2016B_JetHT_MINIAOD_03Feb2017_ver2-v2/merged/V08-00-18/merged_ntuple_304.root
p401
aV/nfs-7/userdata/dataTuple/kludge/Run2016B_JetHT_MINIAOD_03Feb2017_ver2-v2/merged/V08-00-18/merged_ntuple_305.root
p402
aV/nfs-7/userdata/dataTuple/kludge/Run2016B_JetHT_MINIAOD_03Feb2017_ver2-v2/merged/V08-00-18/merged_ntuple_306.root
p403
aV/nfs-7/userdata/dataTuple/kludge/Run2016B_JetHT_MINIAOD_03Feb2017_ver2-v2/merged/V08-00-18/merged_ntuple_307.root
p404
aV/nfs-7/userdata/dataTuple/kludge/Run2016B_JetHT_MINIAOD_03Feb2017_ver2-v2/merged/V08-00-18/merged_ntuple_308.root
p405
aV/nfs-7/userdata/dataTuple/kludge/Run2016B_JetHT_MINIAOD_03Feb2017_ver2-v2/merged/V08-00-18/merged_ntuple_309.root
p406
aV/nfs-7/userdata/dataTuple/kludge/Run2016B_JetHT_MINIAOD_03Feb2017_ver2-v2/merged/V08-00-18/merged_ntuple_310.root
p407
aV/nfs-7/userdata/dataTuple/kludge/Run2016B_JetHT_MINIAOD_03Feb2017_ver2-v2/merged/V08-00-18/merged_ntuple_311.root
p408
aV/nfs-7/userdata/dataTuple/kludge/Run2016B_JetHT_MINIAOD_03Feb2017_ver2-v2/merged/V08-00-18/merged_ntuple_312.root
p409
aV/nfs-7/userdata/dataTuple/kludge/Run2016B_JetHT_MINIAOD_03Feb2017_ver2-v2/merged/V08-00-18/merged_ntuple_313.root
p410
aV/nfs-7/userdata/dataTuple/kludge/Run2016B_JetHT_MINIAOD_03Feb2017_ver2-v2/merged/V08-00-18/merged_ntuple_314.root
p411
aV/nfs-7/userdata/dataTuple/kludge/Run2016B_JetHT_MINIAOD_03Feb2017_ver2-v2/merged/V08-00-18/merged_ntuple_315.root
p412
aV/nfs-7/userdata/dataTuple/kludge/Run2016B_JetHT_MINIAOD_03Feb2017_ver2-v2/merged/V08-00-18/merged_ntuple_316.root
p413
aV/nfs-7/userdata/dataTuple/kludge/Run2016B_JetHT_MINIAOD_03Feb2017_ver2-v2/merged/V08-00-18/merged_ntuple_317.root
p414
aV/nfs-7/userdata/dataTuple/kludge/Run2016B_JetHT_MINIAOD_03Feb2017_ver2-v2/merged/V08-00-18/merged_ntuple_318.root
p415
aV/nfs-7/userdata/dataTuple/kludge/Run2016B_JetHT_MINIAOD_03Feb2017_ver2-v2/merged/V08-00-18/merged_ntuple_319.root
p416
aV/nfs-7/userdata/dataTuple/kludge/Run2016B_JetHT_MINIAOD_03Feb2017_ver2-v2/merged/V08-00-18/merged_ntuple_320.root
p417
aV/nfs-7/userdata/dataTuple/kludge/Run2016B_JetHT_MINIAOD_03Feb2017_ver2-v2/merged/V08-00-18/merged_ntuple_321.root
p418
aV/nfs-7/userdata/dataTuple/kludge/Run2016B_JetHT_MINIAOD_03Feb2017_ver2-v2/merged/V08-00-18/merged_ntuple_322.root
p419
aV/nfs-7/userdata/dataTuple/kludge/Run2016B_JetHT_MINIAOD_03Feb2017_ver2-v2/merged/V08-00-18/merged_ntuple_323.root
p420
aV/nfs-7/userdata/dataTuple/kludge/Run2016B_JetHT_MINIAOD_03Feb2017_ver2-v2/merged/V08-00-18/merged_ntuple_324.root
p421
aV/nfs-7/userdata/dataTuple/kludge/Run2016B_JetHT_MINIAOD_03Feb2017_ver2-v2/merged/V08-00-18/merged_ntuple_325.root
p422
aV/nfs-7/userdata/dataTuple/kludge/Run2016B_JetHT_MINIAOD_03Feb2017_ver2-v2/merged/V08-00-18/merged_ntuple_326.root
p423
aV/nfs-7/userdata/dataTuple/kludge/Run2016B_JetHT_MINIAOD_03Feb2017_ver2-v2/merged/V08-00-18/merged_ntuple_327.root
p424
aV/nfs-7/userdata/dataTuple/kludge/Run2016B_JetHT_MINIAOD_03Feb2017_ver2-v2/merged/V08-00-18/merged_ntuple_328.root
p425
aV/nfs-7/userdata/dataTuple/kludge/Run2016B_JetHT_MINIAOD_03Feb2017_ver2-v2/merged/V08-00-18/merged_ntuple_329.root
p426
aV/nfs-7/userdata/dataTuple/kludge/Run2016B_JetHT_MINIAOD_03Feb2017_ver2-v2/merged/V08-00-18/merged_ntuple_330.root
p427
aV/nfs-7/userdata/dataTuple/kludge/Run2016B_JetHT_MINIAOD_03Feb2017_ver2-v2/merged/V08-00-18/merged_ntuple_331.root
p428
aV/nfs-7/userdata/dataTuple/kludge/Run2016B_JetHT_MINIAOD_03Feb2017_ver2-v2/merged/V08-00-18/merged_ntuple_332.root
p429
aV/nfs-7/userdata/dataTuple/kludge/Run2016B_JetHT_MINIAOD_03Feb2017_ver2-v2/merged/V08-00-18/merged_ntuple_333.root
p430
aV/nfs-7/userdata/dataTuple/kludge/Run2016B_JetHT_MINIAOD_03Feb2017_ver2-v2/merged/V08-00-18/merged_ntuple_334.root
p431
aV/nfs-7/userdata/dataTuple/kludge/Run2016B_JetHT_MINIAOD_03Feb2017_ver2-v2/merged/V08-00-18/merged_ntuple_335.root
p432
aV/nfs-7/userdata/dataTuple/kludge/Run2016B_JetHT_MINIAOD_03Feb2017_ver2-v2/merged/V08-00-18/merged_ntuple_336.root
p433
aV/nfs-7/userdata/dataTuple/kludge/Run2016B_JetHT_MINIAOD_03Feb2017_ver2-v2/merged/V08-00-18/merged_ntuple_337.root
p434
aV/nfs-7/userdata/dataTuple/kludge/Run2016B_JetHT_MINIAOD_03Feb2017_ver2-v2/merged/V08-00-18/merged_ntuple_338.root
p435
aV/nfs-7/userdata/dataTuple/kludge/Run2016B_JetHT_MINIAOD_03Feb2017_ver2-v2/merged/V08-00-18/merged_ntuple_339.root
p436
aV/nfs-7/userdata/dataTuple/kludge/Run2016B_JetHT_MINIAOD_03Feb2017_ver2-v2/merged/V08-00-18/merged_ntuple_340.root
p437
aV/nfs-7/userdata/dataTuple/kludge/Run2016B_JetHT_MINIAOD_03Feb2017_ver2-v2/merged/V08-00-18/merged_ntuple_341.root
p438
aV/nfs-7/userdata/dataTuple/kludge/Run2016B_JetHT_MINIAOD_03Feb2017_ver2-v2/merged/V08-00-18/merged_ntuple_342.root
p439
aV/nfs-7/userdata/dataTuple/kludge/Run2016B_JetHT_MINIAOD_03Feb2017_ver2-v2/merged/V08-00-18/merged_ntuple_343.root
p440
aV/nfs-7/userdata/dataTuple/kludge/Run2016B_JetHT_MINIAOD_03Feb2017_ver2-v2/merged/V08-00-18/merged_ntuple_344.root
p441
aV/nfs-7/userdata/dataTuple/kludge/Run2016B_JetHT_MINIAOD_03Feb2017_ver2-v2/merged/V08-00-18/merged_ntuple_345.root
p442
aV/nfs-7/userdata/dataTuple/kludge/Run2016B_JetHT_MINIAOD_03Feb2017_ver2-v2/merged/V08-00-18/merged_ntuple_346.root
p443
aV/nfs-7/userdata/dataTuple/kludge/Run2016B_JetHT_MINIAOD_03Feb2017_ver2-v2/merged/V08-00-18/merged_ntuple_347.root
p444
aV/nfs-7/userdata/dataTuple/kludge/Run2016B_JetHT_MINIAOD_03Feb2017_ver2-v2/merged/V08-00-18/merged_ntuple_348.root
p445
aV/nfs-7/userdata/dataTuple/kludge/Run2016B_JetHT_MINIAOD_03Feb2017_ver2-v2/merged/V08-00-18/merged_ntuple_349.root
p446
aV/nfs-7/userdata/dataTuple/kludge/Run2016B_JetHT_MINIAOD_03Feb2017_ver2-v2/merged/V08-00-18/merged_ntuple_350.root
p447
aV/nfs-7/userdata/dataTuple/kludge/Run2016B_JetHT_MINIAOD_03Feb2017_ver2-v2/merged/V08-00-18/merged_ntuple_351.root
p448
aV/nfs-7/userdata/dataTuple/kludge/Run2016B_JetHT_MINIAOD_03Feb2017_ver2-v2/merged/V08-00-18/merged_ntuple_352.root
p449
aV/nfs-7/userdata/dataTuple/kludge/Run2016B_JetHT_MINIAOD_03Feb2017_ver2-v2/merged/V08-00-18/merged_ntuple_353.root
p450
aV/nfs-7/userdata/dataTuple/kludge/Run2016B_JetHT_MINIAOD_03Feb2017_ver2-v2/merged/V08-00-18/merged_ntuple_354.root
p451
aV/nfs-7/userdata/dataTuple/kludge/Run2016B_JetHT_MINIAOD_03Feb2017_ver2-v2/merged/V08-00-18/merged_ntuple_355.root
p452
aV/nfs-7/userdata/dataTuple/kludge/Run2016B_JetHT_MINIAOD_03Feb2017_ver2-v2/merged/V08-00-18/merged_ntuple_356.root
p453
aV/nfs-7/userdata/dataTuple/kludge/Run2016B_JetHT_MINIAOD_03Feb2017_ver2-v2/merged/V08-00-18/merged_ntuple_357.root
p454
aV/nfs-7/userdata/dataTuple/kludge/Run2016B_JetHT_MINIAOD_03Feb2017_ver2-v2/merged/V08-00-18/merged_ntuple_358.root
p455
aV/nfs-7/userdata/dataTuple/kludge/Run2016B_JetHT_MINIAOD_03Feb2017_ver2-v2/merged/V08-00-18/merged_ntuple_359.root
p456
aV/nfs-7/userdata/dataTuple/kludge/Run2016B_JetHT_MINIAOD_03Feb2017_ver2-v2/merged/V08-00-18/merged_ntuple_360.root
p457
aV/nfs-7/userdata/dataTuple/kludge/Run2016B_JetHT_MINIAOD_03Feb2017_ver2-v2/merged/V08-00-18/merged_ntuple_361.root
p458
aV/nfs-7/userdata/dataTuple/kludge/Run2016B_JetHT_MINIAOD_03Feb2017_ver2-v2/merged/V08-00-18/merged_ntuple_362.root
p459
aV/nfs-7/userdata/dataTuple/kludge/Run2016B_JetHT_MINIAOD_03Feb2017_ver2-v2/merged/V08-00-18/merged_ntuple_363.root
p460
aV/nfs-7/userdata/dataTuple/kludge/Run2016B_JetHT_MINIAOD_03Feb2017_ver2-v2/merged/V08-00-18/merged_ntuple_364.root
p461
aV/nfs-7/userdata/dataTuple/kludge/Run2016B_JetHT_MINIAOD_03Feb2017_ver2-v2/merged/V08-00-18/merged_ntuple_365.root
p462
aV/nfs-7/userdata/dataTuple/kludge/Run2016B_JetHT_MINIAOD_03Feb2017_ver2-v2/merged/V08-00-18/merged_ntuple_366.root
p463
aV/nfs-7/userdata/dataTuple/kludge/Run2016B_JetHT_MINIAOD_03Feb2017_ver2-v2/merged/V08-00-18/merged_ntuple_367.root
p464
aV/nfs-7/userdata/dataTuple/kludge/Run2016B_JetHT_MINIAOD_03Feb2017_ver2-v2/merged/V08-00-18/merged_ntuple_368.root
p465
aV/nfs-7/userdata/dataTuple/kludge/Run2016B_JetHT_MINIAOD_03Feb2017_ver2-v2/merged/V08-00-18/merged_ntuple_369.root
p466
aV/nfs-7/userdata/dataTuple/kludge/Run2016B_JetHT_MINIAOD_03Feb2017_ver2-v2/merged/V08-00-18/merged_ntuple_370.root
p467
aV/nfs-7/userdata/dataTuple/kludge/Run2016B_JetHT_MINIAOD_03Feb2017_ver2-v2/merged/V08-00-18/merged_ntuple_371.root
p468
aV/nfs-7/userdata/dataTuple/kludge/Run2016B_JetHT_MINIAOD_03Feb2017_ver2-v2/merged/V08-00-18/merged_ntuple_372.root
p469
aV/nfs-7/userdata/dataTuple/kludge/Run2016B_JetHT_MINIAOD_03Feb2017_ver2-v2/merged/V08-00-18/merged_ntuple_373.root
p470
aV/nfs-7/userdata/dataTuple/kludge/Run2016B_JetHT_MINIAOD_03Feb2017_ver2-v2/merged/V08-00-18/merged_ntuple_374.root
p471
aV/nfs-7/userdata/dataTuple/kludge/Run2016B_JetHT_MINIAOD_03Feb2017_ver2-v2/merged/V08-00-18/merged_ntuple_375.root
p472
aV/nfs-7/userdata/dataTuple/kludge/Run2016B_JetHT_MINIAOD_03Feb2017_ver2-v2/merged/V08-00-18/merged_ntuple_376.root
p473
aV/nfs-7/userdata/dataTuple/kludge/Run2016B_JetHT_MINIAOD_03Feb2017_ver2-v2/merged/V08-00-18/merged_ntuple_377.root
p474
aV/nfs-7/userdata/dataTuple/kludge/Run2016B_JetHT_MINIAOD_03Feb2017_ver2-v2/merged/V08-00-18/merged_ntuple_378.root
p475
aV/nfs-7/userdata/dataTuple/kludge/Run2016B_JetHT_MINIAOD_03Feb2017_ver2-v2/merged/V08-00-18/merged_ntuple_379.root
p476
aV/nfs-7/userdata/dataTuple/kludge/Run2016B_JetHT_MINIAOD_03Feb2017_ver2-v2/merged/V08-00-18/merged_ntuple_380.root
p477
aV/nfs-7/userdata/dataTuple/kludge/Run2016B_JetHT_MINIAOD_03Feb2017_ver2-v2/merged/V08-00-18/merged_ntuple_381.root
p478
aV/nfs-7/userdata/dataTuple/kludge/Run2016B_JetHT_MINIAOD_03Feb2017_ver2-v2/merged/V08-00-18/merged_ntuple_382.root
p479
aV/nfs-7/userdata/dataTuple/kludge/Run2016B_JetHT_MINIAOD_03Feb2017_ver2-v2/merged/V08-00-18/merged_ntuple_383.root
p480
aV/nfs-7/userdata/dataTuple/kludge/Run2016B_JetHT_MINIAOD_03Feb2017_ver2-v2/merged/V08-00-18/merged_ntuple_384.root
p481
aV/nfs-7/userdata/dataTuple/kludge/Run2016B_JetHT_MINIAOD_03Feb2017_ver2-v2/merged/V08-00-18/merged_ntuple_385.root
p482
aV/nfs-7/userdata/dataTuple/kludge/Run2016B_JetHT_MINIAOD_03Feb2017_ver2-v2/merged/V08-00-18/merged_ntuple_386.root
p483
aV/nfs-7/userdata/dataTuple/kludge/Run2016B_JetHT_MINIAOD_03Feb2017_ver2-v2/merged/V08-00-18/merged_ntuple_387.root
p484
aV/nfs-7/userdata/dataTuple/kludge/Run2016B_JetHT_MINIAOD_03Feb2017_ver2-v2/merged/V08-00-18/merged_ntuple_388.root
p485
aV/nfs-7/userdata/dataTuple/kludge/Run2016B_JetHT_MINIAOD_03Feb2017_ver2-v2/merged/V08-00-18/merged_ntuple_389.root
p486
aV/nfs-7/userdata/dataTuple/kludge/Run2016B_JetHT_MINIAOD_03Feb2017_ver2-v2/merged/V08-00-18/merged_ntuple_390.root
p487
aV/nfs-7/userdata/dataTuple/kludge/Run2016B_JetHT_MINIAOD_03Feb2017_ver2-v2/merged/V08-00-18/merged_ntuple_391.root
p488
aV/nfs-7/userdata/dataTuple/kludge/Run2016B_JetHT_MINIAOD_03Feb2017_ver2-v2/merged/V08-00-18/merged_ntuple_392.root
p489
aV/nfs-7/userdata/dataTuple/kludge/Run2016B_JetHT_MINIAOD_03Feb2017_ver2-v2/merged/V08-00-18/merged_ntuple_393.root
p490
aV/nfs-7/userdata/dataTuple/kludge/Run2016B_JetHT_MINIAOD_03Feb2017_ver2-v2/merged/V08-00-18/merged_ntuple_394.root
p491
aV/nfs-7/userdata/dataTuple/kludge/Run2016B_JetHT_MINIAOD_03Feb2017_ver2-v2/merged/V08-00-18/merged_ntuple_395.root
p492
aV/nfs-7/userdata/dataTuple/kludge/Run2016B_JetHT_MINIAOD_03Feb2017_ver2-v2/merged/V08-00-18/merged_ntuple_396.root
p493
aV/nfs-7/userdata/dataTuple/kludge/Run2016B_JetHT_MINIAOD_03Feb2017_ver2-v2/merged/V08-00-18/merged_ntuple_397.root
p494
aV/nfs-7/userdata/dataTuple/kludge/Run2016B_JetHT_MINIAOD_03Feb2017_ver2-v2/merged/V08-00-18/merged_ntuple_398.root
p495
aV/nfs-7/userdata/dataTuple/kludge/Run2016B_JetHT_MINIAOD_03Feb2017_ver2-v2/merged/V08-00-18/merged_ntuple_399.root
p496
aV/nfs-7/userdata/dataTuple/kludge/Run2016B_JetHT_MINIAOD_03Feb2017_ver2-v2/merged/V08-00-18/merged_ntuple_400.root
p497
aV/nfs-7/userdata/dataTuple/kludge/Run2016B_JetHT_MINIAOD_03Feb2017_ver2-v2/merged/V08-00-18/merged_ntuple_401.root
p498
aV/nfs-7/userdata/dataTuple/kludge/Run2016B_JetHT_MINIAOD_03Feb2017_ver2-v2/merged/V08-00-18/merged_ntuple_402.root
p499
aV/nfs-7/userdata/dataTuple/kludge/Run2016B_JetHT_MINIAOD_03Feb2017_ver2-v2/merged/V08-00-18/merged_ntuple_403.root
p500
aV/nfs-7/userdata/dataTuple/kludge/Run2016B_JetHT_MINIAOD_03Feb2017_ver2-v2/merged/V08-00-18/merged_ntuple_404.root
p501
aV/nfs-7/userdata/dataTuple/kludge/Run2016B_JetHT_MINIAOD_03Feb2017_ver2-v2/merged/V08-00-18/merged_ntuple_405.root
p502
aV/nfs-7/userdata/dataTuple/kludge/Run2016B_JetHT_MINIAOD_03Feb2017_ver2-v2/merged/V08-00-18/merged_ntuple_406.root
p503
aV/nfs-7/userdata/dataTuple/kludge/Run2016B_JetHT_MINIAOD_03Feb2017_ver2-v2/merged/V08-00-18/merged_ntuple_407.root
p504
aV/nfs-7/userdata/dataTuple/kludge/Run2016B_JetHT_MINIAOD_03Feb2017_ver2-v2/merged/V08-00-18/merged_ntuple_408.root
p505
aV/nfs-7/userdata/dataTuple/kludge/Run2016B_JetHT_MINIAOD_03Feb2017_ver2-v2/merged/V08-00-18/merged_ntuple_409.root
p506
aV/nfs-7/userdata/dataTuple/kludge/Run2016B_JetHT_MINIAOD_03Feb2017_ver2-v2/merged/V08-00-18/merged_ntuple_410.root
p507
aV/nfs-7/userdata/dataTuple/kludge/Run2016B_JetHT_MINIAOD_03Feb2017_ver2-v2/merged/V08-00-18/merged_ntuple_411.root
p508
aV/nfs-7/userdata/dataTuple/kludge/Run2016B_JetHT_MINIAOD_03Feb2017_ver2-v2/merged/V08-00-18/merged_ntuple_412.root
p509
aV/nfs-7/userdata/dataTuple/kludge/Run2016B_JetHT_MINIAOD_03Feb2017_ver2-v2/merged/V08-00-18/merged_ntuple_413.root
p510
aV/nfs-7/userdata/dataTuple/kludge/Run2016B_JetHT_MINIAOD_03Feb2017_ver2-v2/merged/V08-00-18/merged_ntuple_414.root
p511
aV/nfs-7/userdata/dataTuple/kludge/Run2016B_JetHT_MINIAOD_03Feb2017_ver2-v2/merged/V08-00-18/merged_ntuple_415.root
p512
aV/nfs-7/userdata/dataTuple/kludge/Run2016B_JetHT_MINIAOD_03Feb2017_ver2-v2/merged/V08-00-18/merged_ntuple_416.root
p513
aV/nfs-7/userdata/dataTuple/kludge/Run2016B_JetHT_MINIAOD_03Feb2017_ver2-v2/merged/V08-00-18/merged_ntuple_417.root
p514
aV/nfs-7/userdata/dataTuple/kludge/Run2016B_JetHT_MINIAOD_03Feb2017_ver2-v2/merged/V08-00-18/merged_ntuple_418.root
p515
aV/nfs-7/userdata/dataTuple/kludge/Run2016B_JetHT_MINIAOD_03Feb2017_ver2-v2/merged/V08-00-18/merged_ntuple_419.root
p516
aV/nfs-7/userdata/dataTuple/kludge/Run2016B_JetHT_MINIAOD_03Feb2017_ver2-v2/merged/V08-00-18/merged_ntuple_420.root
p517
aV/nfs-7/userdata/dataTuple/kludge/Run2016B_JetHT_MINIAOD_03Feb2017_ver2-v2/merged/V08-00-18/merged_ntuple_421.root
p518
aV/nfs-7/userdata/dataTuple/kludge/Run2016B_JetHT_MINIAOD_03Feb2017_ver2-v2/merged/V08-00-18/merged_ntuple_422.root
p519
aV/nfs-7/userdata/dataTuple/kludge/Run2016B_JetHT_MINIAOD_03Feb2017_ver2-v2/merged/V08-00-18/merged_ntuple_423.root
p520
aV/nfs-7/userdata/dataTuple/kludge/Run2016B_JetHT_MINIAOD_03Feb2017_ver2-v2/merged/V08-00-18/merged_ntuple_424.root
p521
aV/nfs-7/userdata/dataTuple/kludge/Run2016B_JetHT_MINIAOD_03Feb2017_ver2-v2/merged/V08-00-18/merged_ntuple_425.root
p522
aV/nfs-7/userdata/dataTuple/kludge/Run2016B_JetHT_MINIAOD_03Feb2017_ver2-v2/merged/V08-00-18/merged_ntuple_426.root
p523
aV/nfs-7/userdata/dataTuple/kludge/Run2016B_JetHT_MINIAOD_03Feb2017_ver2-v2/merged/V08-00-18/merged_ntuple_427.root
p524
aV/nfs-7/userdata/dataTuple/kludge/Run2016B_JetHT_MINIAOD_03Feb2017_ver2-v2/merged/V08-00-18/merged_ntuple_428.root
p525
aV/nfs-7/userdata/dataTuple/kludge/Run2016B_JetHT_MINIAOD_03Feb2017_ver2-v2/merged/V08-00-18/merged_ntuple_429.root
p526
aV/nfs-7/userdata/dataTuple/kludge/Run2016B_JetHT_MINIAOD_03Feb2017_ver2-v2/merged/V08-00-18/merged_ntuple_430.root
p527
aV/nfs-7/userdata/dataTuple/kludge/Run2016B_JetHT_MINIAOD_03Feb2017_ver2-v2/merged/V08-00-18/merged_ntuple_431.root
p528
aV/nfs-7/userdata/dataTuple/kludge/Run2016B_JetHT_MINIAOD_03Feb2017_ver2-v2/merged/V08-00-18/merged_ntuple_432.root
p529
aV/nfs-7/userdata/dataTuple/kludge/Run2016B_JetHT_MINIAOD_03Feb2017_ver2-v2/merged/V08-00-18/merged_ntuple_433.root
p530
aV/nfs-7/userdata/dataTuple/kludge/Run2016B_JetHT_MINIAOD_03Feb2017_ver2-v2/merged/V08-00-18/merged_ntuple_434.root
p531
aV/nfs-7/userdata/dataTuple/kludge/Run2016B_JetHT_MINIAOD_03Feb2017_ver2-v2/merged/V08-00-18/merged_ntuple_435.root
p532
aV/nfs-7/userdata/dataTuple/kludge/Run2016B_JetHT_MINIAOD_03Feb2017_ver2-v2/merged/V08-00-18/merged_ntuple_436.root
p533
aV/nfs-7/userdata/dataTuple/kludge/Run2016B_JetHT_MINIAOD_03Feb2017_ver2-v2/merged/V08-00-18/merged_ntuple_437.root
p534
aV/nfs-7/userdata/dataTuple/kludge/Run2016B_JetHT_MINIAOD_03Feb2017_ver2-v2/merged/V08-00-18/merged_ntuple_438.root
p535
aV/nfs-7/userdata/dataTuple/kludge/Run2016B_JetHT_MINIAOD_03Feb2017_ver2-v2/merged/V08-00-18/merged_ntuple_439.root
p536
aV/nfs-7/userdata/dataTuple/kludge/Run2016B_JetHT_MINIAOD_03Feb2017_ver2-v2/merged/V08-00-18/merged_ntuple_440.root
p537
aV/nfs-7/userdata/dataTuple/kludge/Run2016B_JetHT_MINIAOD_03Feb2017_ver2-v2/merged/V08-00-18/merged_ntuple_441.root
p538
aV/nfs-7/userdata/dataTuple/kludge/Run2016B_JetHT_MINIAOD_03Feb2017_ver2-v2/merged/V08-00-18/merged_ntuple_442.root
p539
aV/nfs-7/userdata/dataTuple/kludge/Run2016B_JetHT_MINIAOD_03Feb2017_ver2-v2/merged/V08-00-18/merged_ntuple_443.root
p540
aV/nfs-7/userdata/dataTuple/kludge/Run2016B_JetHT_MINIAOD_03Feb2017_ver2-v2/merged/V08-00-18/merged_ntuple_444.root
p541
aV/nfs-7/userdata/dataTuple/kludge/Run2016B_JetHT_MINIAOD_03Feb2017_ver2-v2/merged/V08-00-18/merged_ntuple_445.root
p542
aV/nfs-7/userdata/dataTuple/kludge/Run2016B_JetHT_MINIAOD_03Feb2017_ver2-v2/merged/V08-00-18/merged_ntuple_446.root
p543
aV/nfs-7/userdata/dataTuple/kludge/Run2016B_JetHT_MINIAOD_03Feb2017_ver2-v2/merged/V08-00-18/merged_ntuple_447.root
p544
aV/nfs-7/userdata/dataTuple/kludge/Run2016B_JetHT_MINIAOD_03Feb2017_ver2-v2/merged/V08-00-18/merged_ntuple_448.root
p545
aV/nfs-7/userdata/dataTuple/kludge/Run2016B_JetHT_MINIAOD_03Feb2017_ver2-v2/merged/V08-00-18/merged_ntuple_449.root
p546
aV/nfs-7/userdata/dataTuple/kludge/Run2016B_JetHT_MINIAOD_03Feb2017_ver2-v2/merged/V08-00-18/merged_ntuple_450.root
p547
aV/nfs-7/userdata/dataTuple/kludge/Run2016B_JetHT_MINIAOD_03Feb2017_ver2-v2/merged/V08-00-18/merged_ntuple_451.root
p548
aV/nfs-7/userdata/dataTuple/kludge/Run2016B_JetHT_MINIAOD_03Feb2017_ver2-v2/merged/V08-00-18/merged_ntuple_452.root
p549
aV/nfs-7/userdata/dataTuple/kludge/Run2016B_JetHT_MINIAOD_03Feb2017_ver2-v2/merged/V08-00-18/merged_ntuple_453.root
p550
aV/nfs-7/userdata/dataTuple/kludge/Run2016B_JetHT_MINIAOD_03Feb2017_ver2-v2/merged/V08-00-18/merged_ntuple_454.root
p551
aV/nfs-7/userdata/dataTuple/kludge/Run2016B_JetHT_MINIAOD_03Feb2017_ver2-v2/merged/V08-00-18/merged_ntuple_455.root
p552
aV/nfs-7/userdata/dataTuple/kludge/Run2016B_JetHT_MINIAOD_03Feb2017_ver2-v2/merged/V08-00-18/merged_ntuple_456.root
p553
aV/nfs-7/userdata/dataTuple/kludge/Run2016B_JetHT_MINIAOD_03Feb2017_ver2-v2/merged/V08-00-18/merged_ntuple_457.root
p554
aV/nfs-7/userdata/dataTuple/kludge/Run2016B_JetHT_MINIAOD_03Feb2017_ver2-v2/merged/V08-00-18/merged_ntuple_458.root
p555
aV/nfs-7/userdata/dataTuple/kludge/Run2016B_JetHT_MINIAOD_03Feb2017_ver2-v2/merged/V08-00-18/merged_ntuple_459.root
p556
aV/nfs-7/userdata/dataTuple/kludge/Run2016B_JetHT_MINIAOD_03Feb2017_ver2-v2/merged/V08-00-18/merged_ntuple_460.root
p557
aV/nfs-7/userdata/dataTuple/kludge/Run2016B_JetHT_MINIAOD_03Feb2017_ver2-v2/merged/V08-00-18/merged_ntuple_461.root
p558
aV/nfs-7/userdata/dataTuple/kludge/Run2016B_JetHT_MINIAOD_03Feb2017_ver2-v2/merged/V08-00-18/merged_ntuple_462.root
p559
aV/nfs-7/userdata/dataTuple/kludge/Run2016B_JetHT_MINIAOD_03Feb2017_ver2-v2/merged/V08-00-18/merged_ntuple_463.root
p560
aV/nfs-7/userdata/dataTuple/kludge/Run2016B_JetHT_MINIAOD_03Feb2017_ver2-v2/merged/V08-00-18/merged_ntuple_464.root
p561
aV/nfs-7/userdata/dataTuple/kludge/Run2016B_JetHT_MINIAOD_03Feb2017_ver2-v2/merged/V08-00-18/merged_ntuple_465.root
p562
aV/nfs-7/userdata/dataTuple/kludge/Run2016B_JetHT_MINIAOD_03Feb2017_ver2-v2/merged/V08-00-18/merged_ntuple_466.root
p563
aV/nfs-7/userdata/dataTuple/kludge/Run2016B_JetHT_MINIAOD_03Feb2017_ver2-v2/merged/V08-00-18/merged_ntuple_467.root
p564
aV/nfs-7/userdata/dataTuple/kludge/Run2016B_JetHT_MINIAOD_03Feb2017_ver2-v2/merged/V08-00-18/merged_ntuple_468.root
p565
aV/nfs-7/userdata/dataTuple/kludge/Run2016B_JetHT_MINIAOD_03Feb2017_ver2-v2/merged/V08-00-18/merged_ntuple_469.root
p566
aV/nfs-7/userdata/dataTuple/kludge/Run2016B_JetHT_MINIAOD_03Feb2017_ver2-v2/merged/V08-00-18/merged_ntuple_470.root
p567
aV/nfs-7/userdata/dataTuple/kludge/Run2016B_JetHT_MINIAOD_03Feb2017_ver2-v2/merged/V08-00-18/merged_ntuple_471.root
p568
aV/nfs-7/userdata/dataTuple/kludge/Run2016B_JetHT_MINIAOD_03Feb2017_ver2-v2/merged/V08-00-18/merged_ntuple_472.root
p569
aV/nfs-7/userdata/dataTuple/kludge/Run2016B_JetHT_MINIAOD_03Feb2017_ver2-v2/merged/V08-00-18/merged_ntuple_473.root
p570
aV/nfs-7/userdata/dataTuple/kludge/Run2016B_JetHT_MINIAOD_03Feb2017_ver2-v2/merged/V08-00-18/merged_ntuple_474.root
p571
aV/nfs-7/userdata/dataTuple/kludge/Run2016B_JetHT_MINIAOD_03Feb2017_ver2-v2/merged/V08-00-18/merged_ntuple_475.root
p572
aV/nfs-7/userdata/dataTuple/kludge/Run2016B_JetHT_MINIAOD_03Feb2017_ver2-v2/merged/V08-00-18/merged_ntuple_476.root
p573
aV/nfs-7/userdata/dataTuple/kludge/Run2016B_JetHT_MINIAOD_03Feb2017_ver2-v2/merged/V08-00-18/merged_ntuple_477.root
p574
aV/nfs-7/userdata/dataTuple/kludge/Run2016B_JetHT_MINIAOD_03Feb2017_ver2-v2/merged/V08-00-18/merged_ntuple_478.root
p575
aV/nfs-7/userdata/dataTuple/kludge/Run2016B_JetHT_MINIAOD_03Feb2017_ver2-v2/merged/V08-00-18/merged_ntuple_479.root
p576
aV/nfs-7/userdata/dataTuple/kludge/Run2016B_JetHT_MINIAOD_03Feb2017_ver2-v2/merged/V08-00-18/merged_ntuple_480.root
p577
aV/nfs-7/userdata/dataTuple/kludge/Run2016B_JetHT_MINIAOD_03Feb2017_ver2-v2/merged/V08-00-18/merged_ntuple_481.root
p578
aV/nfs-7/userdata/dataTuple/kludge/Run2016B_JetHT_MINIAOD_03Feb2017_ver2-v2/merged/V08-00-18/merged_ntuple_482.root
p579
aV/nfs-7/userdata/dataTuple/kludge/Run2016B_JetHT_MINIAOD_03Feb2017_ver2-v2/merged/V08-00-18/merged_ntuple_483.root
p580
aV/nfs-7/userdata/dataTuple/kludge/Run2016B_JetHT_MINIAOD_03Feb2017_ver2-v2/merged/V08-00-18/merged_ntuple_484.root
p581
aV/nfs-7/userdata/dataTuple/kludge/Run2016B_JetHT_MINIAOD_03Feb2017_ver2-v2/merged/V08-00-18/merged_ntuple_485.root
p582
aV/nfs-7/userdata/dataTuple/kludge/Run2016B_JetHT_MINIAOD_03Feb2017_ver2-v2/merged/V08-00-18/merged_ntuple_486.root
p583
aV/nfs-7/userdata/dataTuple/kludge/Run2016B_JetHT_MINIAOD_03Feb2017_ver2-v2/merged/V08-00-18/merged_ntuple_487.root
p584
aV/nfs-7/userdata/dataTuple/kludge/Run2016B_JetHT_MINIAOD_03Feb2017_ver2-v2/merged/V08-00-18/merged_ntuple_488.root
p585
aV/nfs-7/userdata/dataTuple/kludge/Run2016B_JetHT_MINIAOD_03Feb2017_ver2-v2/merged/V08-00-18/merged_ntuple_489.root
p586
aV/nfs-7/userdata/dataTuple/kludge/Run2016B_JetHT_MINIAOD_03Feb2017_ver2-v2/merged/V08-00-18/merged_ntuple_490.root
p587
aV/nfs-7/userdata/dataTuple/kludge/Run2016B_JetHT_MINIAOD_03Feb2017_ver2-v2/merged/V08-00-18/merged_ntuple_491.root
p588
aV/nfs-7/userdata/dataTuple/kludge/Run2016B_JetHT_MINIAOD_03Feb2017_ver2-v2/merged/V08-00-18/merged_ntuple_492.root
p589
aV/nfs-7/userdata/dataTuple/kludge/Run2016B_JetHT_MINIAOD_03Feb2017_ver2-v2/merged/V08-00-18/merged_ntuple_493.root
p590
aV/nfs-7/userdata/dataTuple/kludge/Run2016B_JetHT_MINIAOD_03Feb2017_ver2-v2/merged/V08-00-18/merged_ntuple_494.root
p591
aV/nfs-7/userdata/dataTuple/kludge/Run2016B_JetHT_MINIAOD_03Feb2017_ver2-v2/merged/V08-00-18/merged_ntuple_495.root
p592
aV/nfs-7/userdata/dataTuple/kludge/Run2016B_JetHT_MINIAOD_03Feb2017_ver2-v2/merged/V08-00-18/merged_ntuple_496.root
p593
aV/nfs-7/userdata/dataTuple/kludge/Run2016B_JetHT_MINIAOD_03Feb2017_ver2-v2/merged/V08-00-18/merged_ntuple_497.root
p594
aV/nfs-7/userdata/dataTuple/kludge/Run2016B_JetHT_MINIAOD_03Feb2017_ver2-v2/merged/V08-00-18/merged_ntuple_498.root
p595
aV/nfs-7/userdata/dataTuple/kludge/Run2016B_JetHT_MINIAOD_03Feb2017_ver2-v2/merged/V08-00-18/merged_ntuple_499.root
p596
aV/nfs-7/userdata/dataTuple/kludge/Run2016B_JetHT_MINIAOD_03Feb2017_ver2-v2/merged/V08-00-18/merged_ntuple_500.root
p597
aV/nfs-7/userdata/dataTuple/kludge/Run2016B_JetHT_MINIAOD_03Feb2017_ver2-v2/merged/V08-00-18/merged_ntuple_501.root
p598
aV/nfs-7/userdata/dataTuple/kludge/Run2016B_JetHT_MINIAOD_03Feb2017_ver2-v2/merged/V08-00-18/merged_ntuple_502.root
p599
aV/nfs-7/userdata/dataTuple/kludge/Run2016B_JetHT_MINIAOD_03Feb2017_ver2-v2/merged/V08-00-18/merged_ntuple_503.root
p600
aV/nfs-7/userdata/dataTuple/kludge/Run2016B_JetHT_MINIAOD_03Feb2017_ver2-v2/merged/V08-00-18/merged_ntuple_504.root
p601
aV/nfs-7/userdata/dataTuple/kludge/Run2016B_JetHT_MINIAOD_03Feb2017_ver2-v2/merged/V08-00-18/merged_ntuple_505.root
p602
aV/nfs-7/userdata/dataTuple/kludge/Run2016B_JetHT_MINIAOD_03Feb2017_ver2-v2/merged/V08-00-18/merged_ntuple_506.root
p603
aV/nfs-7/userdata/dataTuple/kludge/Run2016B_JetHT_MINIAOD_03Feb2017_ver2-v2/merged/V08-00-18/merged_ntuple_507.root
p604
aV/nfs-7/userdata/dataTuple/kludge/Run2016B_JetHT_MINIAOD_03Feb2017_ver2-v2/merged/V08-00-18/merged_ntuple_508.root
p605
aV/nfs-7/userdata/dataTuple/kludge/Run2016B_JetHT_MINIAOD_03Feb2017_ver2-v2/merged/V08-00-18/merged_ntuple_509.root
p606
aV/nfs-7/userdata/dataTuple/kludge/Run2016B_JetHT_MINIAOD_03Feb2017_ver2-v2/merged/V08-00-18/merged_ntuple_510.root
p607
aV/nfs-7/userdata/dataTuple/kludge/Run2016B_JetHT_MINIAOD_03Feb2017_ver2-v2/merged/V08-00-18/merged_ntuple_511.root
p608
aV/nfs-7/userdata/dataTuple/kludge/Run2016B_JetHT_MINIAOD_03Feb2017_ver2-v2/merged/V08-00-18/merged_ntuple_512.root
p609
aV/nfs-7/userdata/dataTuple/kludge/Run2016B_JetHT_MINIAOD_03Feb2017_ver2-v2/merged/V08-00-18/merged_ntuple_513.root
p610
aV/nfs-7/userdata/dataTuple/kludge/Run2016B_JetHT_MINIAOD_03Feb2017_ver2-v2/merged/V08-00-18/merged_ntuple_514.root
p611
aV/nfs-7/userdata/dataTuple/kludge/Run2016B_JetHT_MINIAOD_03Feb2017_ver2-v2/merged/V08-00-18/merged_ntuple_515.root
p612
aV/nfs-7/userdata/dataTuple/kludge/Run2016B_JetHT_MINIAOD_03Feb2017_ver2-v2/merged/V08-00-18/merged_ntuple_516.root
p613
aV/nfs-7/userdata/dataTuple/kludge/Run2016B_JetHT_MINIAOD_03Feb2017_ver2-v2/merged/V08-00-18/merged_ntuple_517.root
p614
aV/nfs-7/userdata/dataTuple/kludge/Run2016B_JetHT_MINIAOD_03Feb2017_ver2-v2/merged/V08-00-18/merged_ntuple_518.root
p615
aV/nfs-7/userdata/dataTuple/kludge/Run2016B_JetHT_MINIAOD_03Feb2017_ver2-v2/merged/V08-00-18/merged_ntuple_519.root
p616
aV/nfs-7/userdata/dataTuple/kludge/Run2016B_JetHT_MINIAOD_03Feb2017_ver2-v2/merged/V08-00-18/merged_ntuple_520.root
p617
aV/nfs-7/userdata/dataTuple/kludge/Run2016B_JetHT_MINIAOD_03Feb2017_ver2-v2/merged/V08-00-18/merged_ntuple_521.root
p618
aV/nfs-7/userdata/dataTuple/kludge/Run2016B_JetHT_MINIAOD_03Feb2017_ver2-v2/merged/V08-00-18/merged_ntuple_522.root
p619
aV/nfs-7/userdata/dataTuple/kludge/Run2016B_JetHT_MINIAOD_03Feb2017_ver2-v2/merged/V08-00-18/merged_ntuple_523.root
p620
aV/nfs-7/userdata/dataTuple/kludge/Run2016B_JetHT_MINIAOD_03Feb2017_ver2-v2/merged/V08-00-18/merged_ntuple_524.root
p621
aV/nfs-7/userdata/dataTuple/kludge/Run2016B_JetHT_MINIAOD_03Feb2017_ver2-v2/merged/V08-00-18/merged_ntuple_525.root
p622
aV/nfs-7/userdata/dataTuple/kludge/Run2016B_JetHT_MINIAOD_03Feb2017_ver2-v2/merged/V08-00-18/merged_ntuple_526.root
p623
aV/nfs-7/userdata/dataTuple/kludge/Run2016B_JetHT_MINIAOD_03Feb2017_ver2-v2/merged/V08-00-18/merged_ntuple_527.root
p624
aV/nfs-7/userdata/dataTuple/kludge/Run2016B_JetHT_MINIAOD_03Feb2017_ver2-v2/merged/V08-00-18/merged_ntuple_528.root
p625
aV/nfs-7/userdata/dataTuple/kludge/Run2016B_JetHT_MINIAOD_03Feb2017_ver2-v2/merged/V08-00-18/merged_ntuple_529.root
p626
aV/nfs-7/userdata/dataTuple/kludge/Run2016B_JetHT_MINIAOD_03Feb2017_ver2-v2/merged/V08-00-18/merged_ntuple_530.root
p627
aV/nfs-7/userdata/dataTuple/kludge/Run2016B_JetHT_MINIAOD_03Feb2017_ver2-v2/merged/V08-00-18/merged_ntuple_531.root
p628
aV/nfs-7/userdata/dataTuple/kludge/Run2016B_JetHT_MINIAOD_03Feb2017_ver2-v2/merged/V08-00-18/merged_ntuple_532.root
p629
aV/nfs-7/userdata/dataTuple/kludge/Run2016B_JetHT_MINIAOD_03Feb2017_ver2-v2/merged/V08-00-18/merged_ntuple_533.root
p630
aV/nfs-7/userdata/dataTuple/kludge/Run2016B_JetHT_MINIAOD_03Feb2017_ver2-v2/merged/V08-00-18/merged_ntuple_534.root
p631
aV/nfs-7/userdata/dataTuple/kludge/Run2016B_JetHT_MINIAOD_03Feb2017_ver2-v2/merged/V08-00-18/merged_ntuple_535.root
p632
aV/nfs-7/userdata/dataTuple/kludge/Run2016B_JetHT_MINIAOD_03Feb2017_ver2-v2/merged/V08-00-18/merged_ntuple_536.root
p633
aV/nfs-7/userdata/dataTuple/kludge/Run2016B_JetHT_MINIAOD_03Feb2017_ver2-v2/merged/V08-00-18/merged_ntuple_537.root
p634
aV/nfs-7/userdata/dataTuple/kludge/Run2016B_JetHT_MINIAOD_03Feb2017_ver2-v2/merged/V08-00-18/merged_ntuple_538.root
p635
aV/nfs-7/userdata/dataTuple/kludge/Run2016B_JetHT_MINIAOD_03Feb2017_ver2-v2/merged/V08-00-18/merged_ntuple_539.root
p636
aV/nfs-7/userdata/dataTuple/kludge/Run2016B_JetHT_MINIAOD_03Feb2017_ver2-v2/merged/V08-00-18/merged_ntuple_540.root
p637
aV/nfs-7/userdata/dataTuple/kludge/Run2016B_JetHT_MINIAOD_03Feb2017_ver2-v2/merged/V08-00-18/merged_ntuple_541.root
p638
aV/nfs-7/userdata/dataTuple/kludge/Run2016B_JetHT_MINIAOD_03Feb2017_ver2-v2/merged/V08-00-18/merged_ntuple_542.root
p639
aV/nfs-7/userdata/dataTuple/kludge/Run2016B_JetHT_MINIAOD_03Feb2017_ver2-v2/merged/V08-00-18/merged_ntuple_543.root
p640
aV/nfs-7/userdata/dataTuple/kludge/Run2016B_JetHT_MINIAOD_03Feb2017_ver2-v2/merged/V08-00-18/merged_ntuple_544.root
p641
aV/nfs-7/userdata/dataTuple/kludge/Run2016B_JetHT_MINIAOD_03Feb2017_ver2-v2/merged/V08-00-18/merged_ntuple_545.root
p642
aV/nfs-7/userdata/dataTuple/kludge/Run2016B_JetHT_MINIAOD_03Feb2017_ver2-v2/merged/V08-00-18/merged_ntuple_546.root
p643
aV/nfs-7/userdata/dataTuple/kludge/Run2016B_JetHT_MINIAOD_03Feb2017_ver2-v2/merged/V08-00-18/merged_ntuple_547.root
p644
aV/nfs-7/userdata/dataTuple/kludge/Run2016B_JetHT_MINIAOD_03Feb2017_ver2-v2/merged/V08-00-18/merged_ntuple_548.root
p645
aV/nfs-7/userdata/dataTuple/kludge/Run2016B_JetHT_MINIAOD_03Feb2017_ver2-v2/merged/V08-00-18/merged_ntuple_549.root
p646
aV/nfs-7/userdata/dataTuple/kludge/Run2016B_JetHT_MINIAOD_03Feb2017_ver2-v2/merged/V08-00-18/merged_ntuple_550.root
p647
aV/nfs-7/userdata/dataTuple/kludge/Run2016B_JetHT_MINIAOD_03Feb2017_ver2-v2/merged/V08-00-18/merged_ntuple_551.root
p648
aV/nfs-7/userdata/dataTuple/kludge/Run2016B_JetHT_MINIAOD_03Feb2017_ver2-v2/merged/V08-00-18/merged_ntuple_552.root
p649
aV/nfs-7/userdata/dataTuple/kludge/Run2016B_JetHT_MINIAOD_03Feb2017_ver2-v2/merged/V08-00-18/merged_ntuple_553.root
p650
aV/nfs-7/userdata/dataTuple/kludge/Run2016B_JetHT_MINIAOD_03Feb2017_ver2-v2/merged/V08-00-18/merged_ntuple_554.root
p651
aV/nfs-7/userdata/dataTuple/kludge/Run2016B_JetHT_MINIAOD_03Feb2017_ver2-v2/merged/V08-00-18/merged_ntuple_555.root
p652
aV/nfs-7/userdata/dataTuple/kludge/Run2016B_JetHT_MINIAOD_03Feb2017_ver2-v2/merged/V08-00-18/merged_ntuple_556.root
p653
aV/nfs-7/userdata/dataTuple/kludge/Run2016B_JetHT_MINIAOD_03Feb2017_ver2-v2/merged/V08-00-18/merged_ntuple_557.root
p654
aV/nfs-7/userdata/dataTuple/kludge/Run2016B_JetHT_MINIAOD_03Feb2017_ver2-v2/merged/V08-00-18/merged_ntuple_558.root
p655
aV/nfs-7/userdata/dataTuple/kludge/Run2016B_JetHT_MINIAOD_03Feb2017_ver2-v2/merged/V08-00-18/merged_ntuple_559.root
p656
aV/nfs-7/userdata/dataTuple/kludge/Run2016B_JetHT_MINIAOD_03Feb2017_ver2-v2/merged/V08-00-18/merged_ntuple_560.root
p657
aV/nfs-7/userdata/dataTuple/kludge/Run2016B_JetHT_MINIAOD_03Feb2017_ver2-v2/merged/V08-00-18/merged_ntuple_561.root
p658
aV/nfs-7/userdata/dataTuple/kludge/Run2016B_JetHT_MINIAOD_03Feb2017_ver2-v2/merged/V08-00-18/merged_ntuple_562.root
p659
aV/nfs-7/userdata/dataTuple/kludge/Run2016B_JetHT_MINIAOD_03Feb2017_ver2-v2/merged/V08-00-18/merged_ntuple_563.root
p660
aV/nfs-7/userdata/dataTuple/kludge/Run2016B_JetHT_MINIAOD_03Feb2017_ver2-v2/merged/V08-00-18/merged_ntuple_564.root
p661
aV/nfs-7/userdata/dataTuple/kludge/Run2016B_JetHT_MINIAOD_03Feb2017_ver2-v2/merged/V08-00-18/merged_ntuple_565.root
p662
aV/nfs-7/userdata/dataTuple/kludge/Run2016B_JetHT_MINIAOD_03Feb2017_ver2-v2/merged/V08-00-18/merged_ntuple_566.root
p663
aV/nfs-7/userdata/dataTuple/kludge/Run2016B_JetHT_MINIAOD_03Feb2017_ver2-v2/merged/V08-00-18/merged_ntuple_567.root
p664
aV/nfs-7/userdata/dataTuple/kludge/Run2016B_JetHT_MINIAOD_03Feb2017_ver2-v2/merged/V08-00-18/merged_ntuple_568.root
p665
aV/nfs-7/userdata/dataTuple/kludge/Run2016B_JetHT_MINIAOD_03Feb2017_ver2-v2/merged/V08-00-18/merged_ntuple_569.root
p666
aV/nfs-7/userdata/dataTuple/kludge/Run2016B_JetHT_MINIAOD_03Feb2017_ver2-v2/merged/V08-00-18/merged_ntuple_570.root
p667
aV/nfs-7/userdata/dataTuple/kludge/Run2016B_JetHT_MINIAOD_03Feb2017_ver2-v2/merged/V08-00-18/merged_ntuple_571.root
p668
aV/nfs-7/userdata/dataTuple/kludge/Run2016B_JetHT_MINIAOD_03Feb2017_ver2-v2/merged/V08-00-18/merged_ntuple_572.root
p669
aV/nfs-7/userdata/dataTuple/kludge/Run2016B_JetHT_MINIAOD_03Feb2017_ver2-v2/merged/V08-00-18/merged_ntuple_573.root
p670
aV/nfs-7/userdata/dataTuple/kludge/Run2016B_JetHT_MINIAOD_03Feb2017_ver2-v2/merged/V08-00-18/merged_ntuple_574.root
p671
aV/nfs-7/userdata/dataTuple/kludge/Run2016B_JetHT_MINIAOD_03Feb2017_ver2-v2/merged/V08-00-18/merged_ntuple_575.root
p672
aV/nfs-7/userdata/dataTuple/kludge/Run2016B_JetHT_MINIAOD_03Feb2017_ver2-v2/merged/V08-00-18/merged_ntuple_576.root
p673
aV/nfs-7/userdata/dataTuple/kludge/Run2016B_JetHT_MINIAOD_03Feb2017_ver2-v2/merged/V08-00-18/merged_ntuple_577.root
p674
aV/nfs-7/userdata/dataTuple/kludge/Run2016B_JetHT_MINIAOD_03Feb2017_ver2-v2/merged/V08-00-18/merged_ntuple_578.root
p675
aV/nfs-7/userdata/dataTuple/kludge/Run2016B_JetHT_MINIAOD_03Feb2017_ver2-v2/merged/V08-00-18/merged_ntuple_579.root
p676
aV/nfs-7/userdata/dataTuple/kludge/Run2016B_JetHT_MINIAOD_03Feb2017_ver2-v2/merged/V08-00-18/merged_ntuple_580.root
p677
aV/nfs-7/userdata/dataTuple/kludge/Run2016B_JetHT_MINIAOD_03Feb2017_ver2-v2/merged/V08-00-18/merged_ntuple_581.root
p678
aV/nfs-7/userdata/dataTuple/kludge/Run2016B_JetHT_MINIAOD_03Feb2017_ver2-v2/merged/V08-00-18/merged_ntuple_582.root
p679
aV/nfs-7/userdata/dataTuple/kludge/Run2016B_JetHT_MINIAOD_03Feb2017_ver2-v2/merged/V08-00-18/merged_ntuple_583.root
p680
aV/nfs-7/userdata/dataTuple/kludge/Run2016B_JetHT_MINIAOD_03Feb2017_ver2-v2/merged/V08-00-18/merged_ntuple_584.root
p681
aV/nfs-7/userdata/dataTuple/kludge/Run2016B_JetHT_MINIAOD_03Feb2017_ver2-v2/merged/V08-00-18/merged_ntuple_585.root
p682
aV/nfs-7/userdata/dataTuple/kludge/Run2016B_JetHT_MINIAOD_03Feb2017_ver2-v2/merged/V08-00-18/merged_ntuple_586.root
p683
aV/nfs-7/userdata/dataTuple/kludge/Run2016B_JetHT_MINIAOD_03Feb2017_ver2-v2/merged/V08-00-18/merged_ntuple_587.root
p684
aV/nfs-7/userdata/dataTuple/kludge/Run2016B_JetHT_MINIAOD_03Feb2017_ver2-v2/merged/V08-00-18/merged_ntuple_588.root
p685
aV/nfs-7/userdata/dataTuple/kludge/Run2016B_JetHT_MINIAOD_03Feb2017_ver2-v2/merged/V08-00-18/merged_ntuple_589.root
p686
aV/nfs-7/userdata/dataTuple/kludge/Run2016B_JetHT_MINIAOD_03Feb2017_ver2-v2/merged/V08-00-18/merged_ntuple_590.root
p687
aV/nfs-7/userdata/dataTuple/kludge/Run2016B_JetHT_MINIAOD_03Feb2017_ver2-v2/merged/V08-00-18/merged_ntuple_591.root
p688
aV/nfs-7/userdata/dataTuple/kludge/Run2016B_JetHT_MINIAOD_03Feb2017_ver2-v2/merged/V08-00-18/merged_ntuple_592.root
p689
aV/nfs-7/userdata/dataTuple/kludge/Run2016B_JetHT_MINIAOD_03Feb2017_ver2-v2/merged/V08-00-18/merged_ntuple_593.root
p690
aV/nfs-7/userdata/dataTuple/kludge/Run2016B_JetHT_MINIAOD_03Feb2017_ver2-v2/merged/V08-00-18/merged_ntuple_594.root
p691
aV/nfs-7/userdata/dataTuple/kludge/Run2016B_JetHT_MINIAOD_03Feb2017_ver2-v2/merged/V08-00-18/merged_ntuple_595.root
p692
aV/nfs-7/userdata/dataTuple/kludge/Run2016B_JetHT_MINIAOD_03Feb2017_ver2-v2/merged/V08-00-18/merged_ntuple_596.root
p693
aV/nfs-7/userdata/dataTuple/kludge/Run2016B_JetHT_MINIAOD_03Feb2017_ver2-v2/merged/V08-00-18/merged_ntuple_597.root
p694
aV/nfs-7/userdata/dataTuple/kludge/Run2016B_JetHT_MINIAOD_03Feb2017_ver2-v2/merged/V08-00-18/merged_ntuple_598.root
p695
aV/nfs-7/userdata/dataTuple/kludge/Run2016B_JetHT_MINIAOD_03Feb2017_ver2-v2/merged/V08-00-18/merged_ntuple_599.root
p696
aV/nfs-7/userdata/dataTuple/kludge/Run2016B_JetHT_MINIAOD_03Feb2017_ver2-v2/merged/V08-00-18/merged_ntuple_600.root
p697
aV/nfs-7/userdata/dataTuple/kludge/Run2016B_JetHT_MINIAOD_03Feb2017_ver2-v2/merged/V08-00-18/merged_ntuple_601.root
p698
aV/nfs-7/userdata/dataTuple/kludge/Run2016B_JetHT_MINIAOD_03Feb2017_ver2-v2/merged/V08-00-18/merged_ntuple_602.root
p699
aV/nfs-7/userdata/dataTuple/kludge/Run2016B_JetHT_MINIAOD_03Feb2017_ver2-v2/merged/V08-00-18/merged_ntuple_603.root
p700
aV/nfs-7/userdata/dataTuple/kludge/Run2016B_JetHT_MINIAOD_03Feb2017_ver2-v2/merged/V08-00-18/merged_ntuple_604.root
p701
aV/nfs-7/userdata/dataTuple/kludge/Run2016B_JetHT_MINIAOD_03Feb2017_ver2-v2/merged/V08-00-18/merged_ntuple_605.root
p702
aV/nfs-7/userdata/dataTuple/kludge/Run2016B_JetHT_MINIAOD_03Feb2017_ver2-v2/merged/V08-00-18/merged_ntuple_606.root
p703
aV/nfs-7/userdata/dataTuple/kludge/Run2016B_JetHT_MINIAOD_03Feb2017_ver2-v2/merged/V08-00-18/merged_ntuple_607.root
p704
aV/nfs-7/userdata/dataTuple/kludge/Run2016B_JetHT_MINIAOD_03Feb2017_ver2-v2/merged/V08-00-18/merged_ntuple_608.root
p705
aV/nfs-7/userdata/dataTuple/kludge/Run2016B_JetHT_MINIAOD_03Feb2017_ver2-v2/merged/V08-00-18/merged_ntuple_609.root
p706
aV/nfs-7/userdata/dataTuple/kludge/Run2016B_JetHT_MINIAOD_03Feb2017_ver2-v2/merged/V08-00-18/merged_ntuple_610.root
p707
aV/nfs-7/userdata/dataTuple/kludge/Run2016B_JetHT_MINIAOD_03Feb2017_ver2-v2/merged/V08-00-18/merged_ntuple_611.root
p708
aV/nfs-7/userdata/dataTuple/kludge/Run2016B_JetHT_MINIAOD_03Feb2017_ver2-v2/merged/V08-00-18/merged_ntuple_612.root
p709
aV/nfs-7/userdata/dataTuple/kludge/Run2016B_JetHT_MINIAOD_03Feb2017_ver2-v2/merged/V08-00-18/merged_ntuple_613.root
p710
aV/nfs-7/userdata/dataTuple/kludge/Run2016B_JetHT_MINIAOD_03Feb2017_ver2-v2/merged/V08-00-18/merged_ntuple_614.root
p711
aV/nfs-7/userdata/dataTuple/kludge/Run2016B_JetHT_MINIAOD_03Feb2017_ver2-v2/merged/V08-00-18/merged_ntuple_615.root
p712
aV/nfs-7/userdata/dataTuple/kludge/Run2016B_JetHT_MINIAOD_03Feb2017_ver2-v2/merged/V08-00-18/merged_ntuple_616.root
p713
aV/nfs-7/userdata/dataTuple/kludge/Run2016B_JetHT_MINIAOD_03Feb2017_ver2-v2/merged/V08-00-18/merged_ntuple_617.root
p714
aV/nfs-7/userdata/dataTuple/kludge/Run2016B_JetHT_MINIAOD_03Feb2017_ver2-v2/merged/V08-00-18/merged_ntuple_618.root
p715
aV/nfs-7/userdata/dataTuple/kludge/Run2016B_JetHT_MINIAOD_03Feb2017_ver2-v2/merged/V08-00-18/merged_ntuple_619.root
p716
aV/nfs-7/userdata/dataTuple/kludge/Run2016B_JetHT_MINIAOD_03Feb2017_ver2-v2/merged/V08-00-18/merged_ntuple_620.root
p717
aV/nfs-7/userdata/dataTuple/kludge/Run2016B_JetHT_MINIAOD_03Feb2017_ver2-v2/merged/V08-00-18/merged_ntuple_621.root
p718
aV/nfs-7/userdata/dataTuple/kludge/Run2016B_JetHT_MINIAOD_03Feb2017_ver2-v2/merged/V08-00-18/merged_ntuple_622.root
p719
aV/nfs-7/userdata/dataTuple/kludge/Run2016B_JetHT_MINIAOD_03Feb2017_ver2-v2/merged/V08-00-18/merged_ntuple_623.root
p720
aV/nfs-7/userdata/dataTuple/kludge/Run2016B_JetHT_MINIAOD_03Feb2017_ver2-v2/merged/V08-00-18/merged_ntuple_624.root
p721
aV/nfs-7/userdata/dataTuple/kludge/Run2016B_JetHT_MINIAOD_03Feb2017_ver2-v2/merged/V08-00-18/merged_ntuple_625.root
p722
aV/nfs-7/userdata/dataTuple/kludge/Run2016B_JetHT_MINIAOD_03Feb2017_ver2-v2/merged/V08-00-18/merged_ntuple_626.root
p723
aV/nfs-7/userdata/dataTuple/kludge/Run2016B_JetHT_MINIAOD_03Feb2017_ver2-v2/merged/V08-00-18/merged_ntuple_627.root
p724
aV/nfs-7/userdata/dataTuple/kludge/Run2016B_JetHT_MINIAOD_03Feb2017_ver2-v2/merged/V08-00-18/merged_ntuple_628.root
p725
aV/nfs-7/userdata/dataTuple/kludge/Run2016B_JetHT_MINIAOD_03Feb2017_ver2-v2/merged/V08-00-18/merged_ntuple_629.root
p726
aV/nfs-7/userdata/dataTuple/kludge/Run2016B_JetHT_MINIAOD_03Feb2017_ver2-v2/merged/V08-00-18/merged_ntuple_630.root
p727
aV/nfs-7/userdata/dataTuple/kludge/Run2016B_JetHT_MINIAOD_03Feb2017_ver2-v2/merged/V08-00-18/merged_ntuple_631.root
p728
aV/nfs-7/userdata/dataTuple/kludge/Run2016B_JetHT_MINIAOD_03Feb2017_ver2-v2/merged/V08-00-18/merged_ntuple_632.root
p729
aV/nfs-7/userdata/dataTuple/kludge/Run2016B_JetHT_MINIAOD_03Feb2017_ver2-v2/merged/V08-00-18/merged_ntuple_633.root
p730
aV/nfs-7/userdata/dataTuple/kludge/Run2016B_JetHT_MINIAOD_03Feb2017_ver2-v2/merged/V08-00-18/merged_ntuple_634.root
p731
aV/nfs-7/userdata/dataTuple/kludge/Run2016B_JetHT_MINIAOD_03Feb2017_ver2-v2/merged/V08-00-18/merged_ntuple_635.root
p732
aV/nfs-7/userdata/dataTuple/kludge/Run2016B_JetHT_MINIAOD_03Feb2017_ver2-v2/merged/V08-00-18/merged_ntuple_636.root
p733
aV/nfs-7/userdata/dataTuple/kludge/Run2016B_JetHT_MINIAOD_03Feb2017_ver2-v2/merged/V08-00-18/merged_ntuple_637.root
p734
aV/nfs-7/userdata/dataTuple/kludge/Run2016B_JetHT_MINIAOD_03Feb2017_ver2-v2/merged/V08-00-18/merged_ntuple_638.root
p735
aV/nfs-7/userdata/dataTuple/kludge/Run2016B_JetHT_MINIAOD_03Feb2017_ver2-v2/merged/V08-00-18/merged_ntuple_639.root
p736
aV/nfs-7/userdata/dataTuple/kludge/Run2016B_JetHT_MINIAOD_03Feb2017_ver2-v2/merged/V08-00-18/merged_ntuple_640.root
p737
aV/nfs-7/userdata/dataTuple/kludge/Run2016B_JetHT_MINIAOD_03Feb2017_ver2-v2/merged/V08-00-18/merged_ntuple_641.root
p738
aV/nfs-7/userdata/dataTuple/kludge/Run2016B_JetHT_MINIAOD_03Feb2017_ver2-v2/merged/V08-00-18/merged_ntuple_642.root
p739
aV/nfs-7/userdata/dataTuple/kludge/Run2016B_JetHT_MINIAOD_03Feb2017_ver2-v2/merged/V08-00-18/merged_ntuple_643.root
p740
aV/nfs-7/userdata/dataTuple/kludge/Run2016B_JetHT_MINIAOD_03Feb2017_ver2-v2/merged/V08-00-18/merged_ntuple_644.root
p741
aV/nfs-7/userdata/dataTuple/kludge/Run2016B_JetHT_MINIAOD_03Feb2017_ver2-v2/merged/V08-00-18/merged_ntuple_645.root
p742
aV/nfs-7/userdata/dataTuple/kludge/Run2016B_JetHT_MINIAOD_03Feb2017_ver2-v2/merged/V08-00-18/merged_ntuple_646.root
p743
aV/nfs-7/userdata/dataTuple/kludge/Run2016B_JetHT_MINIAOD_03Feb2017_ver2-v2/merged/V08-00-18/merged_ntuple_647.root
p744
aV/nfs-7/userdata/dataTuple/kludge/Run2016B_JetHT_MINIAOD_03Feb2017_ver2-v2/merged/V08-00-18/merged_ntuple_648.root
p745
aV/nfs-7/userdata/dataTuple/kludge/Run2016B_JetHT_MINIAOD_03Feb2017_ver2-v2/merged/V08-00-18/merged_ntuple_649.root
p746
aV/nfs-7/userdata/dataTuple/kludge/Run2016B_JetHT_MINIAOD_03Feb2017_ver2-v2/merged/V08-00-18/merged_ntuple_650.root
p747
aV/nfs-7/userdata/dataTuple/kludge/Run2016B_JetHT_MINIAOD_03Feb2017_ver2-v2/merged/V08-00-18/merged_ntuple_651.root
p748
aV/nfs-7/userdata/dataTuple/kludge/Run2016B_JetHT_MINIAOD_03Feb2017_ver2-v2/merged/V08-00-18/merged_ntuple_652.root
p749
aV/nfs-7/userdata/dataTuple/kludge/Run2016B_JetHT_MINIAOD_03Feb2017_ver2-v2/merged/V08-00-18/merged_ntuple_653.root
p750
aV/nfs-7/userdata/dataTuple/kludge/Run2016B_JetHT_MINIAOD_03Feb2017_ver2-v2/merged/V08-00-18/merged_ntuple_654.root
p751
aV/nfs-7/userdata/dataTuple/kludge/Run2016B_JetHT_MINIAOD_03Feb2017_ver2-v2/merged/V08-00-18/merged_ntuple_655.root
p752
aV/nfs-7/userdata/dataTuple/kludge/Run2016B_JetHT_MINIAOD_03Feb2017_ver2-v2/merged/V08-00-18/merged_ntuple_656.root
p753
aV/nfs-7/userdata/dataTuple/kludge/Run2016B_JetHT_MINIAOD_03Feb2017_ver2-v2/merged/V08-00-18/merged_ntuple_657.root
p754
aV/nfs-7/userdata/dataTuple/kludge/Run2016B_JetHT_MINIAOD_03Feb2017_ver2-v2/merged/V08-00-18/merged_ntuple_658.root
p755
aV/nfs-7/userdata/dataTuple/kludge/Run2016B_JetHT_MINIAOD_03Feb2017_ver2-v2/merged/V08-00-18/merged_ntuple_659.root
p756
aV/nfs-7/userdata/dataTuple/kludge/Run2016B_JetHT_MINIAOD_03Feb2017_ver2-v2/merged/V08-00-18/merged_ntuple_660.root
p757
aV/nfs-7/userdata/dataTuple/kludge/Run2016B_JetHT_MINIAOD_03Feb2017_ver2-v2/merged/V08-00-18/merged_ntuple_661.root
p758
aV/nfs-7/userdata/dataTuple/kludge/Run2016B_JetHT_MINIAOD_03Feb2017_ver2-v2/merged/V08-00-18/merged_ntuple_662.root
p759
aV/nfs-7/userdata/dataTuple/kludge/Run2016B_JetHT_MINIAOD_03Feb2017_ver2-v2/merged/V08-00-18/merged_ntuple_663.root
p760
aV/nfs-7/userdata/dataTuple/kludge/Run2016B_JetHT_MINIAOD_03Feb2017_ver2-v2/merged/V08-00-18/merged_ntuple_664.root
p761
aV/nfs-7/userdata/dataTuple/kludge/Run2016B_JetHT_MINIAOD_03Feb2017_ver2-v2/merged/V08-00-18/merged_ntuple_665.root
p762
aV/nfs-7/userdata/dataTuple/kludge/Run2016B_JetHT_MINIAOD_03Feb2017_ver2-v2/merged/V08-00-18/merged_ntuple_666.root
p763
aV/nfs-7/userdata/dataTuple/kludge/Run2016B_JetHT_MINIAOD_03Feb2017_ver2-v2/merged/V08-00-18/merged_ntuple_667.root
p764
aV/nfs-7/userdata/dataTuple/kludge/Run2016B_JetHT_MINIAOD_03Feb2017_ver2-v2/merged/V08-00-18/merged_ntuple_668.root
p765
aV/nfs-7/userdata/dataTuple/kludge/Run2016B_JetHT_MINIAOD_03Feb2017_ver2-v2/merged/V08-00-18/merged_ntuple_669.root
p766
aV/nfs-7/userdata/dataTuple/kludge/Run2016B_JetHT_MINIAOD_03Feb2017_ver2-v2/merged/V08-00-18/merged_ntuple_670.root
p767
aV/nfs-7/userdata/dataTuple/kludge/Run2016B_JetHT_MINIAOD_03Feb2017_ver2-v2/merged/V08-00-18/merged_ntuple_671.root
p768
aV/nfs-7/userdata/dataTuple/kludge/Run2016B_JetHT_MINIAOD_03Feb2017_ver2-v2/merged/V08-00-18/merged_ntuple_672.root
p769
aV/nfs-7/userdata/dataTuple/kludge/Run2016B_JetHT_MINIAOD_03Feb2017_ver2-v2/merged/V08-00-18/merged_ntuple_673.root
p770
aV/nfs-7/userdata/dataTuple/kludge/Run2016B_JetHT_MINIAOD_03Feb2017_ver2-v2/merged/V08-00-18/merged_ntuple_674.root
p771
aV/nfs-7/userdata/dataTuple/kludge/Run2016B_JetHT_MINIAOD_03Feb2017_ver2-v2/merged/V08-00-18/merged_ntuple_675.root
p772
aV/nfs-7/userdata/dataTuple/kludge/Run2016B_JetHT_MINIAOD_03Feb2017_ver2-v2/merged/V08-00-18/merged_ntuple_676.root
p773
aV/nfs-7/userdata/dataTuple/kludge/Run2016B_JetHT_MINIAOD_03Feb2017_ver2-v2/merged/V08-00-18/merged_ntuple_677.root
p774
aV/nfs-7/userdata/dataTuple/kludge/Run2016B_JetHT_MINIAOD_03Feb2017_ver2-v2/merged/V08-00-18/merged_ntuple_678.root
p775
aV/nfs-7/userdata/dataTuple/kludge/Run2016B_JetHT_MINIAOD_03Feb2017_ver2-v2/merged/V08-00-18/merged_ntuple_679.root
p776
aV/nfs-7/userdata/dataTuple/kludge/Run2016B_JetHT_MINIAOD_03Feb2017_ver2-v2/merged/V08-00-18/merged_ntuple_680.root
p777
aV/nfs-7/userdata/dataTuple/kludge/Run2016B_JetHT_MINIAOD_03Feb2017_ver2-v2/merged/V08-00-18/merged_ntuple_681.root
p778
aV/nfs-7/userdata/dataTuple/kludge/Run2016B_JetHT_MINIAOD_03Feb2017_ver2-v2/merged/V08-00-18/merged_ntuple_682.root
p779
aV/nfs-7/userdata/dataTuple/kludge/Run2016B_JetHT_MINIAOD_03Feb2017_ver2-v2/merged/V08-00-18/merged_ntuple_683.root
p780
aV/nfs-7/userdata/dataTuple/kludge/Run2016B_JetHT_MINIAOD_03Feb2017_ver2-v2/merged/V08-00-18/merged_ntuple_684.root
p781
aV/nfs-7/userdata/dataTuple/kludge/Run2016B_JetHT_MINIAOD_03Feb2017_ver2-v2/merged/V08-00-18/merged_ntuple_685.root
p782
aV/nfs-7/userdata/dataTuple/kludge/Run2016B_JetHT_MINIAOD_03Feb2017_ver2-v2/merged/V08-00-18/merged_ntuple_686.root
p783
aV/nfs-7/userdata/dataTuple/kludge/Run2016B_JetHT_MINIAOD_03Feb2017_ver2-v2/merged/V08-00-18/merged_ntuple_687.root
p784
aV/nfs-7/userdata/dataTuple/kludge/Run2016B_JetHT_MINIAOD_03Feb2017_ver2-v2/merged/V08-00-18/merged_ntuple_688.root
p785
aV/nfs-7/userdata/dataTuple/kludge/Run2016B_JetHT_MINIAOD_03Feb2017_ver2-v2/merged/V08-00-18/merged_ntuple_689.root
p786
aV/nfs-7/userdata/dataTuple/kludge/Run2016B_JetHT_MINIAOD_03Feb2017_ver2-v2/merged/V08-00-18/merged_ntuple_690.root
p787
aV/nfs-7/userdata/dataTuple/kludge/Run2016B_JetHT_MINIAOD_03Feb2017_ver2-v2/merged/V08-00-18/merged_ntuple_691.root
p788
aV/nfs-7/userdata/dataTuple/kludge/Run2016B_JetHT_MINIAOD_03Feb2017_ver2-v2/merged/V08-00-18/merged_ntuple_692.root
p789
aV/nfs-7/userdata/dataTuple/kludge/Run2016B_JetHT_MINIAOD_03Feb2017_ver2-v2/merged/V08-00-18/merged_ntuple_693.root
p790
aV/nfs-7/userdata/dataTuple/kludge/Run2016B_JetHT_MINIAOD_03Feb2017_ver2-v2/merged/V08-00-18/merged_ntuple_694.root
p791
aV/nfs-7/userdata/dataTuple/kludge/Run2016B_JetHT_MINIAOD_03Feb2017_ver2-v2/merged/V08-00-18/merged_ntuple_695.root
p792
aV/nfs-7/userdata/dataTuple/kludge/Run2016B_JetHT_MINIAOD_03Feb2017_ver2-v2/merged/V08-00-18/merged_ntuple_696.root
p793
aV/nfs-7/userdata/dataTuple/kludge/Run2016B_JetHT_MINIAOD_03Feb2017_ver2-v2/merged/V08-00-18/merged_ntuple_697.root
p794
aV/nfs-7/userdata/dataTuple/kludge/Run2016B_JetHT_MINIAOD_03Feb2017_ver2-v2/merged/V08-00-18/merged_ntuple_698.root
p795
aV/nfs-7/userdata/dataTuple/kludge/Run2016B_JetHT_MINIAOD_03Feb2017_ver2-v2/merged/V08-00-18/merged_ntuple_699.root
p796
aV/nfs-7/userdata/dataTuple/kludge/Run2016B_JetHT_MINIAOD_03Feb2017_ver2-v2/merged/V08-00-18/merged_ntuple_700.root
p797
aV/nfs-7/userdata/dataTuple/kludge/Run2016B_JetHT_MINIAOD_03Feb2017_ver2-v2/merged/V08-00-18/merged_ntuple_701.root
p798
aV/nfs-7/userdata/dataTuple/kludge/Run2016B_JetHT_MINIAOD_03Feb2017_ver2-v2/merged/V08-00-18/merged_ntuple_702.root
p799
aV/nfs-7/userdata/dataTuple/kludge/Run2016B_JetHT_MINIAOD_03Feb2017_ver2-v2/merged/V08-00-18/merged_ntuple_703.root
p800
aV/nfs-7/userdata/dataTuple/kludge/Run2016B_JetHT_MINIAOD_03Feb2017_ver2-v2/merged/V08-00-18/merged_ntuple_704.root
p801
aV/nfs-7/userdata/dataTuple/kludge/Run2016B_JetHT_MINIAOD_03Feb2017_ver2-v2/merged/V08-00-18/merged_ntuple_705.root
p802
aV/nfs-7/userdata/dataTuple/kludge/Run2016B_JetHT_MINIAOD_03Feb2017_ver2-v2/merged/V08-00-18/merged_ntuple_706.root
p803
aV/nfs-7/userdata/dataTuple/kludge/Run2016B_JetHT_MINIAOD_03Feb2017_ver2-v2/merged/V08-00-18/merged_ntuple_707.root
p804
aV/nfs-7/userdata/dataTuple/kludge/Run2016B_JetHT_MINIAOD_03Feb2017_ver2-v2/merged/V08-00-18/merged_ntuple_708.root
p805
aV/nfs-7/userdata/dataTuple/kludge/Run2016B_JetHT_MINIAOD_03Feb2017_ver2-v2/merged/V08-00-18/merged_ntuple_709.root
p806
aV/nfs-7/userdata/dataTuple/kludge/Run2016B_JetHT_MINIAOD_03Feb2017_ver2-v2/merged/V08-00-18/merged_ntuple_710.root
p807
aV/nfs-7/userdata/dataTuple/kludge/Run2016B_JetHT_MINIAOD_03Feb2017_ver2-v2/merged/V08-00-18/merged_ntuple_711.root
p808
aV/nfs-7/userdata/dataTuple/kludge/Run2016B_JetHT_MINIAOD_03Feb2017_ver2-v2/merged/V08-00-18/merged_ntuple_712.root
p809
aV/nfs-7/userdata/dataTuple/kludge/Run2016B_JetHT_MINIAOD_03Feb2017_ver2-v2/merged/V08-00-18/merged_ntuple_713.root
p810
aV/nfs-7/userdata/dataTuple/kludge/Run2016B_JetHT_MINIAOD_03Feb2017_ver2-v2/merged/V08-00-18/merged_ntuple_714.root
p811
aV/nfs-7/userdata/dataTuple/kludge/Run2016B_JetHT_MINIAOD_03Feb2017_ver2-v2/merged/V08-00-18/merged_ntuple_715.root
p812
aV/nfs-7/userdata/dataTuple/kludge/Run2016B_JetHT_MINIAOD_03Feb2017_ver2-v2/merged/V08-00-18/merged_ntuple_716.root
p813
aV/nfs-7/userdata/dataTuple/kludge/Run2016B_JetHT_MINIAOD_03Feb2017_ver2-v2/merged/V08-00-18/merged_ntuple_717.root
p814
aV/nfs-7/userdata/dataTuple/kludge/Run2016B_JetHT_MINIAOD_03Feb2017_ver2-v2/merged/V08-00-18/merged_ntuple_718.root
p815
aV/nfs-7/userdata/dataTuple/kludge/Run2016B_JetHT_MINIAOD_03Feb2017_ver2-v2/merged/V08-00-18/merged_ntuple_719.root
p816
aV/nfs-7/userdata/dataTuple/kludge/Run2016B_JetHT_MINIAOD_03Feb2017_ver2-v2/merged/V08-00-18/merged_ntuple_720.root
p817
aV/nfs-7/userdata/dataTuple/kludge/Run2016B_JetHT_MINIAOD_03Feb2017_ver2-v2/merged/V08-00-18/merged_ntuple_721.root
p818
aV/nfs-7/userdata/dataTuple/kludge/Run2016B_JetHT_MINIAOD_03Feb2017_ver2-v2/merged/V08-00-18/merged_ntuple_722.root
p819
aV/nfs-7/userdata/dataTuple/kludge/Run2016B_JetHT_MINIAOD_03Feb2017_ver2-v2/merged/V08-00-18/merged_ntuple_723.root
p820
aV/nfs-7/userdata/dataTuple/kludge/Run2016B_JetHT_MINIAOD_03Feb2017_ver2-v2/merged/V08-00-18/merged_ntuple_724.root
p821
aV/nfs-7/userdata/dataTuple/kludge/Run2016B_JetHT_MINIAOD_03Feb2017_ver2-v2/merged/V08-00-18/merged_ntuple_725.root
p822
aV/nfs-7/userdata/dataTuple/kludge/Run2016B_JetHT_MINIAOD_03Feb2017_ver2-v2/merged/V08-00-18/merged_ntuple_726.root
p823
aV/nfs-7/userdata/dataTuple/kludge/Run2016B_JetHT_MINIAOD_03Feb2017_ver2-v2/merged/V08-00-18/merged_ntuple_727.root
p824
aV/nfs-7/userdata/dataTuple/kludge/Run2016B_JetHT_MINIAOD_03Feb2017_ver2-v2/merged/V08-00-18/merged_ntuple_728.root
p825
aV/nfs-7/userdata/dataTuple/kludge/Run2016B_JetHT_MINIAOD_03Feb2017_ver2-v2/merged/V08-00-18/merged_ntuple_729.root
p826
aV/nfs-7/userdata/dataTuple/kludge/Run2016B_JetHT_MINIAOD_03Feb2017_ver2-v2/merged/V08-00-18/merged_ntuple_730.root
p827
aV/nfs-7/userdata/dataTuple/kludge/Run2016B_JetHT_MINIAOD_03Feb2017_ver2-v2/merged/V08-00-18/merged_ntuple_731.root
p828
aV/nfs-7/userdata/dataTuple/kludge/Run2016B_JetHT_MINIAOD_03Feb2017_ver2-v2/merged/V08-00-18/merged_ntuple_732.root
p829
aV/nfs-7/userdata/dataTuple/kludge/Run2016B_JetHT_MINIAOD_03Feb2017_ver2-v2/merged/V08-00-18/merged_ntuple_733.root
p830
aV/nfs-7/userdata/dataTuple/kludge/Run2016B_JetHT_MINIAOD_03Feb2017_ver2-v2/merged/V08-00-18/merged_ntuple_734.root
p831
aV/nfs-7/userdata/dataTuple/kludge/Run2016B_JetHT_MINIAOD_03Feb2017_ver2-v2/merged/V08-00-18/merged_ntuple_735.root
p832
aV/nfs-7/userdata/dataTuple/kludge/Run2016B_JetHT_MINIAOD_03Feb2017_ver2-v2/merged/V08-00-18/merged_ntuple_736.root
p833
aV/nfs-7/userdata/dataTuple/kludge/Run2016B_JetHT_MINIAOD_03Feb2017_ver2-v2/merged/V08-00-18/merged_ntuple_737.root
p834
aV/nfs-7/userdata/dataTuple/kludge/Run2016B_JetHT_MINIAOD_03Feb2017_ver2-v2/merged/V08-00-18/merged_ntuple_738.root
p835
aV/nfs-7/userdata/dataTuple/kludge/Run2016B_JetHT_MINIAOD_03Feb2017_ver2-v2/merged/V08-00-18/merged_ntuple_739.root
p836
aV/nfs-7/userdata/dataTuple/kludge/Run2016B_JetHT_MINIAOD_03Feb2017_ver2-v2/merged/V08-00-18/merged_ntuple_740.root
p837
aV/nfs-7/userdata/dataTuple/kludge/Run2016B_JetHT_MINIAOD_03Feb2017_ver2-v2/merged/V08-00-18/merged_ntuple_741.root
p838
aV/nfs-7/userdata/dataTuple/kludge/Run2016B_JetHT_MINIAOD_03Feb2017_ver2-v2/merged/V08-00-18/merged_ntuple_742.root
p839
aV/nfs-7/userdata/dataTuple/kludge/Run2016B_JetHT_MINIAOD_03Feb2017_ver2-v2/merged/V08-00-18/merged_ntuple_743.root
p840
aV/nfs-7/userdata/dataTuple/kludge/Run2016B_JetHT_MINIAOD_03Feb2017_ver2-v2/merged/V08-00-18/merged_ntuple_744.root
p841
aV/nfs-7/userdata/dataTuple/kludge/Run2016B_JetHT_MINIAOD_03Feb2017_ver2-v2/merged/V08-00-18/merged_ntuple_745.root
p842
aV/nfs-7/userdata/dataTuple/kludge/Run2016B_JetHT_MINIAOD_03Feb2017_ver2-v2/merged/V08-00-18/merged_ntuple_746.root
p843
aV/nfs-7/userdata/dataTuple/kludge/Run2016B_JetHT_MINIAOD_03Feb2017_ver2-v2/merged/V08-00-18/merged_ntuple_747.root
p844
aV/nfs-7/userdata/dataTuple/kludge/Run2016B_JetHT_MINIAOD_03Feb2017_ver2-v2/merged/V08-00-18/merged_ntuple_748.root
p845
aV/nfs-7/userdata/dataTuple/kludge/Run2016B_JetHT_MINIAOD_03Feb2017_ver2-v2/merged/V08-00-18/merged_ntuple_749.root
p846
aV/nfs-7/userdata/dataTuple/kludge/Run2016B_JetHT_MINIAOD_03Feb2017_ver2-v2/merged/V08-00-18/merged_ntuple_750.root
p847
aV/nfs-7/userdata/dataTuple/kludge/Run2016B_JetHT_MINIAOD_03Feb2017_ver2-v2/merged/V08-00-18/merged_ntuple_751.root
p848
aV/nfs-7/userdata/dataTuple/kludge/Run2016B_JetHT_MINIAOD_03Feb2017_ver2-v2/merged/V08-00-18/merged_ntuple_752.root
p849
aV/nfs-7/userdata/dataTuple/kludge/Run2016B_JetHT_MINIAOD_03Feb2017_ver2-v2/merged/V08-00-18/merged_ntuple_753.root
p850
aV/nfs-7/userdata/dataTuple/kludge/Run2016B_JetHT_MINIAOD_03Feb2017_ver2-v2/merged/V08-00-18/merged_ntuple_754.root
p851
aV/nfs-7/userdata/dataTuple/kludge/Run2016B_JetHT_MINIAOD_03Feb2017_ver2-v2/merged/V08-00-18/merged_ntuple_755.root
p852
aV/nfs-7/userdata/dataTuple/kludge/Run2016B_JetHT_MINIAOD_03Feb2017_ver2-v2/merged/V08-00-18/merged_ntuple_756.root
p853
aV/nfs-7/userdata/dataTuple/kludge/Run2016B_JetHT_MINIAOD_03Feb2017_ver2-v2/merged/V08-00-18/merged_ntuple_757.root
p854
aV/nfs-7/userdata/dataTuple/kludge/Run2016B_JetHT_MINIAOD_03Feb2017_ver2-v2/merged/V08-00-18/merged_ntuple_758.root
p855
aV/nfs-7/userdata/dataTuple/kludge/Run2016B_JetHT_MINIAOD_03Feb2017_ver2-v2/merged/V08-00-18/merged_ntuple_759.root
p856
aV/nfs-7/userdata/dataTuple/kludge/Run2016B_JetHT_MINIAOD_03Feb2017_ver2-v2/merged/V08-00-18/merged_ntuple_760.root
p857
aV/nfs-7/userdata/dataTuple/kludge/Run2016B_JetHT_MINIAOD_03Feb2017_ver2-v2/merged/V08-00-18/merged_ntuple_761.root
p858
aV/nfs-7/userdata/dataTuple/kludge/Run2016B_JetHT_MINIAOD_03Feb2017_ver2-v2/merged/V08-00-18/merged_ntuple_762.root
p859
aV/nfs-7/userdata/dataTuple/kludge/Run2016B_JetHT_MINIAOD_03Feb2017_ver2-v2/merged/V08-00-18/merged_ntuple_763.root
p860
aV/nfs-7/userdata/dataTuple/kludge/Run2016B_JetHT_MINIAOD_03Feb2017_ver2-v2/merged/V08-00-18/merged_ntuple_764.root
p861
aV/nfs-7/userdata/dataTuple/kludge/Run2016B_JetHT_MINIAOD_03Feb2017_ver2-v2/merged/V08-00-18/merged_ntuple_765.root
p862
aV/nfs-7/userdata/dataTuple/kludge/Run2016B_JetHT_MINIAOD_03Feb2017_ver2-v2/merged/V08-00-18/merged_ntuple_766.root
p863
aV/nfs-7/userdata/dataTuple/kludge/Run2016B_JetHT_MINIAOD_03Feb2017_ver2-v2/merged/V08-00-18/merged_ntuple_767.root
p864
aV/nfs-7/userdata/dataTuple/kludge/Run2016B_JetHT_MINIAOD_03Feb2017_ver2-v2/merged/V08-00-18/merged_ntuple_768.root
p865
aV/nfs-7/userdata/dataTuple/kludge/Run2016B_JetHT_MINIAOD_03Feb2017_ver2-v2/merged/V08-00-18/merged_ntuple_769.root
p866
aV/nfs-7/userdata/dataTuple/kludge/Run2016B_JetHT_MINIAOD_03Feb2017_ver2-v2/merged/V08-00-18/merged_ntuple_770.root
p867
aV/nfs-7/userdata/dataTuple/kludge/Run2016B_JetHT_MINIAOD_03Feb2017_ver2-v2/merged/V08-00-18/merged_ntuple_771.root
p868
aV/nfs-7/userdata/dataTuple/kludge/Run2016B_JetHT_MINIAOD_03Feb2017_ver2-v2/merged/V08-00-18/merged_ntuple_772.root
p869
aV/nfs-7/userdata/dataTuple/kludge/Run2016B_JetHT_MINIAOD_03Feb2017_ver2-v2/merged/V08-00-18/merged_ntuple_773.root
p870
aV/nfs-7/userdata/dataTuple/kludge/Run2016B_JetHT_MINIAOD_03Feb2017_ver2-v2/merged/V08-00-18/merged_ntuple_774.root
p871
aV/nfs-7/userdata/dataTuple/kludge/Run2016B_JetHT_MINIAOD_03Feb2017_ver2-v2/merged/V08-00-18/merged_ntuple_775.root
p872
aV/nfs-7/userdata/dataTuple/kludge/Run2016B_JetHT_MINIAOD_03Feb2017_ver2-v2/merged/V08-00-18/merged_ntuple_776.root
p873
aV/nfs-7/userdata/dataTuple/kludge/Run2016B_JetHT_MINIAOD_03Feb2017_ver2-v2/merged/V08-00-18/merged_ntuple_777.root
p874
aV/nfs-7/userdata/dataTuple/kludge/Run2016B_JetHT_MINIAOD_03Feb2017_ver2-v2/merged/V08-00-18/merged_ntuple_778.root
p875
aV/nfs-7/userdata/dataTuple/kludge/Run2016B_JetHT_MINIAOD_03Feb2017_ver2-v2/merged/V08-00-18/merged_ntuple_779.root
p876
aV/nfs-7/userdata/dataTuple/kludge/Run2016B_JetHT_MINIAOD_03Feb2017_ver2-v2/merged/V08-00-18/merged_ntuple_780.root
p877
aV/nfs-7/userdata/dataTuple/kludge/Run2016B_JetHT_MINIAOD_03Feb2017_ver2-v2/merged/V08-00-18/merged_ntuple_781.root
p878
aV/nfs-7/userdata/dataTuple/kludge/Run2016B_JetHT_MINIAOD_03Feb2017_ver2-v2/merged/V08-00-18/merged_ntuple_782.root
p879
aV/nfs-7/userdata/dataTuple/kludge/Run2016B_JetHT_MINIAOD_03Feb2017_ver2-v2/merged/V08-00-18/merged_ntuple_783.root
p880
aV/nfs-7/userdata/dataTuple/kludge/Run2016B_JetHT_MINIAOD_03Feb2017_ver2-v2/merged/V08-00-18/merged_ntuple_784.root
p881
aV/nfs-7/userdata/dataTuple/kludge/Run2016B_JetHT_MINIAOD_03Feb2017_ver2-v2/merged/V08-00-18/merged_ntuple_785.root
p882
aV/nfs-7/userdata/dataTuple/kludge/Run2016B_JetHT_MINIAOD_03Feb2017_ver2-v2/merged/V08-00-18/merged_ntuple_786.root
p883
aV/nfs-7/userdata/dataTuple/kludge/Run2016B_JetHT_MINIAOD_03Feb2017_ver2-v2/merged/V08-00-18/merged_ntuple_787.root
p884
aV/nfs-7/userdata/dataTuple/kludge/Run2016B_JetHT_MINIAOD_03Feb2017_ver2-v2/merged/V08-00-18/merged_ntuple_788.root
p885
aV/nfs-7/userdata/dataTuple/kludge/Run2016B_JetHT_MINIAOD_03Feb2017_ver2-v2/merged/V08-00-18/merged_ntuple_789.root
p886
aV/nfs-7/userdata/dataTuple/kludge/Run2016B_JetHT_MINIAOD_03Feb2017_ver2-v2/merged/V08-00-18/merged_ntuple_790.root
p887
aV/nfs-7/userdata/dataTuple/kludge/Run2016B_JetHT_MINIAOD_03Feb2017_ver2-v2/merged/V08-00-18/merged_ntuple_791.root
p888
aV/nfs-7/userdata/dataTuple/kludge/Run2016B_JetHT_MINIAOD_03Feb2017_ver2-v2/merged/V08-00-18/merged_ntuple_792.root
p889
aV/nfs-7/userdata/dataTuple/kludge/Run2016B_JetHT_MINIAOD_03Feb2017_ver2-v2/merged/V08-00-18/merged_ntuple_793.root
p890
aV/nfs-7/userdata/dataTuple/kludge/Run2016B_JetHT_MINIAOD_03Feb2017_ver2-v2/merged/V08-00-18/merged_ntuple_794.root
p891
aV/nfs-7/userdata/dataTuple/kludge/Run2016B_JetHT_MINIAOD_03Feb2017_ver2-v2/merged/V08-00-18/merged_ntuple_795.root
p892
aV/nfs-7/userdata/dataTuple/kludge/Run2016B_JetHT_MINIAOD_03Feb2017_ver2-v2/merged/V08-00-18/merged_ntuple_796.root
p893
aV/nfs-7/userdata/dataTuple/kludge/Run2016B_JetHT_MINIAOD_03Feb2017_ver2-v2/merged/V08-00-18/merged_ntuple_797.root
p894
aV/nfs-7/userdata/dataTuple/kludge/Run2016B_JetHT_MINIAOD_03Feb2017_ver2-v2/merged/V08-00-18/merged_ntuple_798.root
p895
aV/nfs-7/userdata/dataTuple/kludge/Run2016B_JetHT_MINIAOD_03Feb2017_ver2-v2/merged/V08-00-18/merged_ntuple_799.root
p896
aV/nfs-7/userdata/dataTuple/kludge/Run2016B_JetHT_MINIAOD_03Feb2017_ver2-v2/merged/V08-00-18/merged_ntuple_800.root
p897
aV/nfs-7/userdata/dataTuple/kludge/Run2016B_JetHT_MINIAOD_03Feb2017_ver2-v2/merged/V08-00-18/merged_ntuple_801.root
p898
aV/nfs-7/userdata/dataTuple/kludge/Run2016B_JetHT_MINIAOD_03Feb2017_ver2-v2/merged/V08-00-18/merged_ntuple_802.root
p899
aV/nfs-7/userdata/dataTuple/kludge/Run2016B_JetHT_MINIAOD_03Feb2017_ver2-v2/merged/V08-00-18/merged_ntuple_803.root
p900
aV/nfs-7/userdata/dataTuple/kludge/Run2016B_JetHT_MINIAOD_03Feb2017_ver2-v2/merged/V08-00-18/merged_ntuple_804.root
p901
aV/nfs-7/userdata/dataTuple/kludge/Run2016B_JetHT_MINIAOD_03Feb2017_ver2-v2/merged/V08-00-18/merged_ntuple_805.root
p902
aV/nfs-7/userdata/dataTuple/kludge/Run2016B_JetHT_MINIAOD_03Feb2017_ver2-v2/merged/V08-00-18/merged_ntuple_806.root
p903
aV/nfs-7/userdata/dataTuple/kludge/Run2016B_JetHT_MINIAOD_03Feb2017_ver2-v2/merged/V08-00-18/merged_ntuple_807.root
p904
aV/nfs-7/userdata/dataTuple/kludge/Run2016B_JetHT_MINIAOD_03Feb2017_ver2-v2/merged/V08-00-18/merged_ntuple_808.root
p905
aV/nfs-7/userdata/dataTuple/kludge/Run2016B_JetHT_MINIAOD_03Feb2017_ver2-v2/merged/V08-00-18/merged_ntuple_809.root
p906
aV/nfs-7/userdata/dataTuple/kludge/Run2016B_JetHT_MINIAOD_03Feb2017_ver2-v2/merged/V08-00-18/merged_ntuple_810.root
p907
aV/nfs-7/userdata/dataTuple/kludge/Run2016B_JetHT_MINIAOD_03Feb2017_ver2-v2/merged/V08-00-18/merged_ntuple_811.root
p908
aV/nfs-7/userdata/dataTuple/kludge/Run2016B_JetHT_MINIAOD_03Feb2017_ver2-v2/merged/V08-00-18/merged_ntuple_812.root
p909
aV/nfs-7/userdata/dataTuple/kludge/Run2016B_JetHT_MINIAOD_03Feb2017_ver2-v2/merged/V08-00-18/merged_ntuple_813.root
p910
aV/nfs-7/userdata/dataTuple/kludge/Run2016B_JetHT_MINIAOD_03Feb2017_ver2-v2/merged/V08-00-18/merged_ntuple_814.root
p911
aV/nfs-7/userdata/dataTuple/kludge/Run2016B_JetHT_MINIAOD_03Feb2017_ver2-v2/merged/V08-00-18/merged_ntuple_815.root
p912
aV/nfs-7/userdata/dataTuple/kludge/Run2016B_JetHT_MINIAOD_03Feb2017_ver2-v2/merged/V08-00-18/merged_ntuple_816.root
p913
aV/nfs-7/userdata/dataTuple/kludge/Run2016B_JetHT_MINIAOD_03Feb2017_ver2-v2/merged/V08-00-18/merged_ntuple_817.root
p914
aV/nfs-7/userdata/dataTuple/kludge/Run2016B_JetHT_MINIAOD_03Feb2017_ver2-v2/merged/V08-00-18/merged_ntuple_818.root
p915
aV/nfs-7/userdata/dataTuple/kludge/Run2016B_JetHT_MINIAOD_03Feb2017_ver2-v2/merged/V08-00-18/merged_ntuple_819.root
p916
aV/nfs-7/userdata/dataTuple/kludge/Run2016B_JetHT_MINIAOD_03Feb2017_ver2-v2/merged/V08-00-18/merged_ntuple_820.root
p917
aV/nfs-7/userdata/dataTuple/kludge/Run2016B_JetHT_MINIAOD_03Feb2017_ver2-v2/merged/V08-00-18/merged_ntuple_821.root
p918
aV/nfs-7/userdata/dataTuple/kludge/Run2016B_JetHT_MINIAOD_03Feb2017_ver2-v2/merged/V08-00-18/merged_ntuple_822.root
p919
aV/nfs-7/userdata/dataTuple/kludge/Run2016B_JetHT_MINIAOD_03Feb2017_ver2-v2/merged/V08-00-18/merged_ntuple_823.root
p920
aV/nfs-7/userdata/dataTuple/kludge/Run2016B_JetHT_MINIAOD_03Feb2017_ver2-v2/merged/V08-00-18/merged_ntuple_824.root
p921
aV/nfs-7/userdata/dataTuple/kludge/Run2016B_JetHT_MINIAOD_03Feb2017_ver2-v2/merged/V08-00-18/merged_ntuple_825.root
p922
aV/nfs-7/userdata/dataTuple/kludge/Run2016B_JetHT_MINIAOD_03Feb2017_ver2-v2/merged/V08-00-18/merged_ntuple_826.root
p923
aV/nfs-7/userdata/dataTuple/kludge/Run2016B_JetHT_MINIAOD_03Feb2017_ver2-v2/merged/V08-00-18/merged_ntuple_827.root
p924
aV/nfs-7/userdata/dataTuple/kludge/Run2016B_JetHT_MINIAOD_03Feb2017_ver2-v2/merged/V08-00-18/merged_ntuple_828.root
p925
aV/nfs-7/userdata/dataTuple/kludge/Run2016B_JetHT_MINIAOD_03Feb2017_ver2-v2/merged/V08-00-18/merged_ntuple_829.root
p926
aV/nfs-7/userdata/dataTuple/kludge/Run2016B_JetHT_MINIAOD_03Feb2017_ver2-v2/merged/V08-00-18/merged_ntuple_830.root
p927
aV/nfs-7/userdata/dataTuple/kludge/Run2016B_JetHT_MINIAOD_03Feb2017_ver2-v2/merged/V08-00-18/merged_ntuple_831.root
p928
aV/nfs-7/userdata/dataTuple/kludge/Run2016B_JetHT_MINIAOD_03Feb2017_ver2-v2/merged/V08-00-18/merged_ntuple_832.root
p929
aV/nfs-7/userdata/dataTuple/kludge/Run2016B_JetHT_MINIAOD_03Feb2017_ver2-v2/merged/V08-00-18/merged_ntuple_833.root
p930
aV/nfs-7/userdata/dataTuple/kludge/Run2016B_JetHT_MINIAOD_03Feb2017_ver2-v2/merged/V08-00-18/merged_ntuple_834.root
p931
aV/nfs-7/userdata/dataTuple/kludge/Run2016B_JetHT_MINIAOD_03Feb2017_ver2-v2/merged/V08-00-18/merged_ntuple_835.root
p932
aV/nfs-7/userdata/dataTuple/kludge/Run2016B_JetHT_MINIAOD_03Feb2017_ver2-v2/merged/V08-00-18/merged_ntuple_836.root
p933
aV/nfs-7/userdata/dataTuple/kludge/Run2016B_JetHT_MINIAOD_03Feb2017_ver2-v2/merged/V08-00-18/merged_ntuple_837.root
p934
aV/nfs-7/userdata/dataTuple/kludge/Run2016B_JetHT_MINIAOD_03Feb2017_ver2-v2/merged/V08-00-18/merged_ntuple_838.root
p935
aV/nfs-7/userdata/dataTuple/kludge/Run2016B_JetHT_MINIAOD_03Feb2017_ver2-v2/merged/V08-00-18/merged_ntuple_839.root
p936
aV/nfs-7/userdata/dataTuple/kludge/Run2016B_JetHT_MINIAOD_03Feb2017_ver2-v2/merged/V08-00-18/merged_ntuple_840.root
p937
aV/nfs-7/userdata/dataTuple/kludge/Run2016B_JetHT_MINIAOD_03Feb2017_ver2-v2/merged/V08-00-18/merged_ntuple_841.root
p938
aV/nfs-7/userdata/dataTuple/kludge/Run2016B_JetHT_MINIAOD_03Feb2017_ver2-v2/merged/V08-00-18/merged_ntuple_842.root
p939
aV/nfs-7/userdata/dataTuple/kludge/Run2016B_JetHT_MINIAOD_03Feb2017_ver2-v2/merged/V08-00-18/merged_ntuple_843.root
p940
aV/nfs-7/userdata/dataTuple/kludge/Run2016B_JetHT_MINIAOD_03Feb2017_ver2-v2/merged/V08-00-18/merged_ntuple_844.root
p941
aV/nfs-7/userdata/dataTuple/kludge/Run2016B_JetHT_MINIAOD_03Feb2017_ver2-v2/merged/V08-00-18/merged_ntuple_845.root
p942
aV/nfs-7/userdata/dataTuple/kludge/Run2016B_JetHT_MINIAOD_03Feb2017_ver2-v2/merged/V08-00-18/merged_ntuple_846.root
p943
aV/nfs-7/userdata/dataTuple/kludge/Run2016B_JetHT_MINIAOD_03Feb2017_ver2-v2/merged/V08-00-18/merged_ntuple_847.root
p944
aV/nfs-7/userdata/dataTuple/kludge/Run2016B_JetHT_MINIAOD_03Feb2017_ver2-v2/merged/V08-00-18/merged_ntuple_848.root
p945
aV/nfs-7/userdata/dataTuple/kludge/Run2016B_JetHT_MINIAOD_03Feb2017_ver2-v2/merged/V08-00-18/merged_ntuple_849.root
p946
aV/nfs-7/userdata/dataTuple/kludge/Run2016B_JetHT_MINIAOD_03Feb2017_ver2-v2/merged/V08-00-18/merged_ntuple_850.root
p947
aV/nfs-7/userdata/dataTuple/kludge/Run2016B_JetHT_MINIAOD_03Feb2017_ver2-v2/merged/V08-00-18/merged_ntuple_851.root
p948
aV/nfs-7/userdata/dataTuple/kludge/Run2016B_JetHT_MINIAOD_03Feb2017_ver2-v2/merged/V08-00-18/merged_ntuple_852.root
p949
aV/nfs-7/userdata/dataTuple/kludge/Run2016B_JetHT_MINIAOD_03Feb2017_ver2-v2/merged/V08-00-18/merged_ntuple_853.root
p950
aV/nfs-7/userdata/dataTuple/kludge/Run2016B_JetHT_MINIAOD_03Feb2017_ver2-v2/merged/V08-00-18/merged_ntuple_854.root
p951
aV/nfs-7/userdata/dataTuple/kludge/Run2016B_JetHT_MINIAOD_03Feb2017_ver2-v2/merged/V08-00-18/merged_ntuple_855.root
p952
aV/nfs-7/userdata/dataTuple/kludge/Run2016B_JetHT_MINIAOD_03Feb2017_ver2-v2/merged/V08-00-18/merged_ntuple_856.root
p953
aV/nfs-7/userdata/dataTuple/kludge/Run2016B_JetHT_MINIAOD_03Feb2017_ver2-v2/merged/V08-00-18/merged_ntuple_857.root
p954
aV/nfs-7/userdata/dataTuple/kludge/Run2016B_JetHT_MINIAOD_03Feb2017_ver2-v2/merged/V08-00-18/merged_ntuple_858.root
p955
aV/nfs-7/userdata/dataTuple/kludge/Run2016B_JetHT_MINIAOD_03Feb2017_ver2-v2/merged/V08-00-18/merged_ntuple_859.root
p956
aV/nfs-7/userdata/dataTuple/kludge/Run2016B_JetHT_MINIAOD_03Feb2017_ver2-v2/merged/V08-00-18/merged_ntuple_860.root
p957
aV/nfs-7/userdata/dataTuple/kludge/Run2016B_JetHT_MINIAOD_03Feb2017_ver2-v2/merged/V08-00-18/merged_ntuple_861.root
p958
aV/nfs-7/userdata/dataTuple/kludge/Run2016B_JetHT_MINIAOD_03Feb2017_ver2-v2/merged/V08-00-18/merged_ntuple_862.root
p959
aV/nfs-7/userdata/dataTuple/kludge/Run2016B_JetHT_MINIAOD_03Feb2017_ver2-v2/merged/V08-00-18/merged_ntuple_863.root
p960
aV/nfs-7/userdata/dataTuple/kludge/Run2016B_JetHT_MINIAOD_03Feb2017_ver2-v2/merged/V08-00-18/merged_ntuple_864.root
p961
aV/nfs-7/userdata/dataTuple/kludge/Run2016B_JetHT_MINIAOD_03Feb2017_ver2-v2/merged/V08-00-18/merged_ntuple_865.root
p962
aV/nfs-7/userdata/dataTuple/kludge/Run2016B_JetHT_MINIAOD_03Feb2017_ver2-v2/merged/V08-00-18/merged_ntuple_866.root
p963
aV/nfs-7/userdata/dataTuple/kludge/Run2016B_JetHT_MINIAOD_03Feb2017_ver2-v2/merged/V08-00-18/merged_ntuple_867.root
p964
aV/nfs-7/userdata/dataTuple/kludge/Run2016B_JetHT_MINIAOD_03Feb2017_ver2-v2/merged/V08-00-18/merged_ntuple_868.root
p965
aV/nfs-7/userdata/dataTuple/kludge/Run2016B_JetHT_MINIAOD_03Feb2017_ver2-v2/merged/V08-00-18/merged_ntuple_869.root
p966
aV/nfs-7/userdata/dataTuple/kludge/Run2016B_JetHT_MINIAOD_03Feb2017_ver2-v2/merged/V08-00-18/merged_ntuple_870.root
p967
aV/nfs-7/userdata/dataTuple/kludge/Run2016B_JetHT_MINIAOD_03Feb2017_ver2-v2/merged/V08-00-18/merged_ntuple_871.root
p968
aV/nfs-7/userdata/dataTuple/kludge/Run2016B_JetHT_MINIAOD_03Feb2017_ver2-v2/merged/V08-00-18/merged_ntuple_872.root
p969
aV/nfs-7/userdata/dataTuple/kludge/Run2016B_JetHT_MINIAOD_03Feb2017_ver2-v2/merged/V08-00-18/merged_ntuple_873.root
p970
aV/nfs-7/userdata/dataTuple/kludge/Run2016B_JetHT_MINIAOD_03Feb2017_ver2-v2/merged/V08-00-18/merged_ntuple_874.root
p971
aV/nfs-7/userdata/dataTuple/kludge/Run2016B_JetHT_MINIAOD_03Feb2017_ver2-v2/merged/V08-00-18/merged_ntuple_875.root
p972
aV/nfs-7/userdata/dataTuple/kludge/Run2016B_JetHT_MINIAOD_03Feb2017_ver2-v2/merged/V08-00-18/merged_ntuple_876.root
p973
aV/nfs-7/userdata/dataTuple/kludge/Run2016B_JetHT_MINIAOD_03Feb2017_ver2-v2/merged/V08-00-18/merged_ntuple_877.root
p974
aV/nfs-7/userdata/dataTuple/kludge/Run2016B_JetHT_MINIAOD_03Feb2017_ver2-v2/merged/V08-00-18/merged_ntuple_878.root
p975
aV/nfs-7/userdata/dataTuple/kludge/Run2016B_JetHT_MINIAOD_03Feb2017_ver2-v2/merged/V08-00-18/merged_ntuple_879.root
p976
aV/nfs-7/userdata/dataTuple/kludge/Run2016B_JetHT_MINIAOD_03Feb2017_ver2-v2/merged/V08-00-18/merged_ntuple_880.root
p977
aV/nfs-7/userdata/dataTuple/kludge/Run2016B_JetHT_MINIAOD_03Feb2017_ver2-v2/merged/V08-00-18/merged_ntuple_881.root
p978
aV/nfs-7/userdata/dataTuple/kludge/Run2016B_JetHT_MINIAOD_03Feb2017_ver2-v2/merged/V08-00-18/merged_ntuple_882.root
p979
aV/nfs-7/userdata/dataTuple/kludge/Run2016B_JetHT_MINIAOD_03Feb2017_ver2-v2/merged/V08-00-18/merged_ntuple_883.root
p980
aV/nfs-7/userdata/dataTuple/kludge/Run2016B_JetHT_MINIAOD_03Feb2017_ver2-v2/merged/V08-00-18/merged_ntuple_884.root
p981
aV/nfs-7/userdata/dataTuple/kludge/Run2016B_JetHT_MINIAOD_03Feb2017_ver2-v2/merged/V08-00-18/merged_ntuple_885.root
p982
aV/nfs-7/userdata/dataTuple/kludge/Run2016B_JetHT_MINIAOD_03Feb2017_ver2-v2/merged/V08-00-18/merged_ntuple_886.root
p983
aV/nfs-7/userdata/dataTuple/kludge/Run2016B_JetHT_MINIAOD_03Feb2017_ver2-v2/merged/V08-00-18/merged_ntuple_887.root
p984
aV/nfs-7/userdata/dataTuple/kludge/Run2016B_JetHT_MINIAOD_03Feb2017_ver2-v2/merged/V08-00-18/merged_ntuple_888.root
p985
aV/nfs-7/userdata/dataTuple/kludge/Run2016B_JetHT_MINIAOD_03Feb2017_ver2-v2/merged/V08-00-18/merged_ntuple_889.root
p986
aV/nfs-7/userdata/dataTuple/kludge/Run2016B_JetHT_MINIAOD_03Feb2017_ver2-v2/merged/V08-00-18/merged_ntuple_890.root
p987
aV/nfs-7/userdata/dataTuple/kludge/Run2016B_JetHT_MINIAOD_03Feb2017_ver2-v2/merged/V08-00-18/merged_ntuple_891.root
p988
aV/nfs-7/userdata/dataTuple/kludge/Run2016B_JetHT_MINIAOD_03Feb2017_ver2-v2/merged/V08-00-18/merged_ntuple_892.root
p989
aV/nfs-7/userdata/dataTuple/kludge/Run2016B_JetHT_MINIAOD_03Feb2017_ver2-v2/merged/V08-00-18/merged_ntuple_893.root
p990
aV/nfs-7/userdata/dataTuple/kludge/Run2016B_JetHT_MINIAOD_03Feb2017_ver2-v2/merged/V08-00-18/merged_ntuple_894.root
p991
aV/nfs-7/userdata/dataTuple/kludge/Run2016B_JetHT_MINIAOD_03Feb2017_ver2-v2/merged/V08-00-18/merged_ntuple_895.root
p992
aV/nfs-7/userdata/dataTuple/kludge/Run2016B_JetHT_MINIAOD_03Feb2017_ver2-v2/merged/V08-00-18/merged_ntuple_896.root
p993
aV/nfs-7/userdata/dataTuple/kludge/Run2016B_JetHT_MINIAOD_03Feb2017_ver2-v2/merged/V08-00-18/merged_ntuple_897.root
p994
aV/nfs-7/userdata/dataTuple/kludge/Run2016B_JetHT_MINIAOD_03Feb2017_ver2-v2/merged/V08-00-18/merged_ntuple_898.root
p995
aV/nfs-7/userdata/dataTuple/kludge/Run2016B_JetHT_MINIAOD_03Feb2017_ver2-v2/merged/V08-00-18/merged_ntuple_899.root
p996
aV/nfs-7/userdata/dataTuple/kludge/Run2016B_JetHT_MINIAOD_03Feb2017_ver2-v2/merged/V08-00-18/merged_ntuple_900.root
p997
aV/nfs-7/userdata/dataTuple/kludge/Run2016B_JetHT_MINIAOD_03Feb2017_ver2-v2/merged/V08-00-18/merged_ntuple_901.root
p998
aV/nfs-7/userdata/dataTuple/kludge/Run2016B_JetHT_MINIAOD_03Feb2017_ver2-v2/merged/V08-00-18/merged_ntuple_902.root
p999
aV/nfs-7/userdata/dataTuple/kludge/Run2016B_JetHT_MINIAOD_03Feb2017_ver2-v2/merged/V08-00-18/merged_ntuple_903.root
p1000
aV/nfs-7/userdata/dataTuple/kludge/Run2016B_JetHT_MINIAOD_03Feb2017_ver2-v2/merged/V08-00-18/merged_ntuple_904.root
p1001
aV/nfs-7/userdata/dataTuple/kludge/Run2016B_JetHT_MINIAOD_03Feb2017_ver2-v2/merged/V08-00-18/merged_ntuple_905.root
p1002
aV/nfs-7/userdata/dataTuple/kludge/Run2016B_JetHT_MINIAOD_03Feb2017_ver2-v2/merged/V08-00-18/merged_ntuple_906.root
p1003
aV/nfs-7/userdata/dataTuple/kludge/Run2016B_JetHT_MINIAOD_03Feb2017_ver2-v2/merged/V08-00-18/merged_ntuple_907.root
p1004
aV/nfs-7/userdata/dataTuple/kludge/Run2016B_JetHT_MINIAOD_03Feb2017_ver2-v2/merged/V08-00-18/merged_ntuple_908.root
p1005
aV/nfs-7/userdata/dataTuple/kludge/Run2016B_JetHT_MINIAOD_03Feb2017_ver2-v2/merged/V08-00-18/merged_ntuple_909.root
p1006
aV/nfs-7/userdata/dataTuple/kludge/Run2016B_JetHT_MINIAOD_03Feb2017_ver2-v2/merged/V08-00-18/merged_ntuple_910.root
p1007
aV/nfs-7/userdata/dataTuple/kludge/Run2016B_JetHT_MINIAOD_03Feb2017_ver2-v2/merged/V08-00-18/merged_ntuple_911.root
p1008
aV/nfs-7/userdata/dataTuple/kludge/Run2016B_JetHT_MINIAOD_03Feb2017_ver2-v2/merged/V08-00-18/merged_ntuple_912.root
p1009
aV/nfs-7/userdata/dataTuple/kludge/Run2016B_JetHT_MINIAOD_03Feb2017_ver2-v2/merged/V08-00-18/merged_ntuple_913.root
p1010
aV/nfs-7/userdata/dataTuple/kludge/Run2016B_JetHT_MINIAOD_03Feb2017_ver2-v2/merged/V08-00-18/merged_ntuple_914.root
p1011
aV/nfs-7/userdata/dataTuple/kludge/Run2016B_JetHT_MINIAOD_03Feb2017_ver2-v2/merged/V08-00-18/merged_ntuple_915.root
p1012
aV/nfs-7/userdata/dataTuple/kludge/Run2016B_JetHT_MINIAOD_03Feb2017_ver2-v2/merged/V08-00-18/merged_ntuple_916.root
p1013
aV/nfs-7/userdata/dataTuple/kludge/Run2016B_JetHT_MINIAOD_03Feb2017_ver2-v2/merged/V08-00-18/merged_ntuple_917.root
p1014
aV/nfs-7/userdata/dataTuple/kludge/Run2016B_JetHT_MINIAOD_03Feb2017_ver2-v2/merged/V08-00-18/merged_ntuple_918.root
p1015
aV/nfs-7/userdata/dataTuple/kludge/Run2016B_JetHT_MINIAOD_03Feb2017_ver2-v2/merged/V08-00-18/merged_ntuple_919.root
p1016
aV/nfs-7/userdata/dataTuple/kludge/Run2016B_JetHT_MINIAOD_03Feb2017_ver2-v2/merged/V08-00-18/merged_ntuple_920.root
p1017
aV/nfs-7/userdata/dataTuple/kludge/Run2016B_JetHT_MINIAOD_03Feb2017_ver2-v2/merged/V08-00-18/merged_ntuple_921.root
p1018
aV/nfs-7/userdata/dataTuple/kludge/Run2016B_JetHT_MINIAOD_03Feb2017_ver2-v2/merged/V08-00-18/merged_ntuple_922.root
p1019
aV/nfs-7/userdata/dataTuple/kludge/Run2016B_JetHT_MINIAOD_03Feb2017_ver2-v2/merged/V08-00-18/merged_ntuple_923.root
p1020
aV/nfs-7/userdata/dataTuple/kludge/Run2016B_JetHT_MINIAOD_03Feb2017_ver2-v2/merged/V08-00-18/merged_ntuple_924.root
p1021
aV/nfs-7/userdata/dataTuple/kludge/Run2016B_JetHT_MINIAOD_03Feb2017_ver2-v2/merged/V08-00-18/merged_ntuple_925.root
p1022
aV/nfs-7/userdata/dataTuple/kludge/Run2016B_JetHT_MINIAOD_03Feb2017_ver2-v2/merged/V08-00-18/merged_ntuple_926.root
p1023
aV/nfs-7/userdata/dataTuple/kludge/Run2016B_JetHT_MINIAOD_03Feb2017_ver2-v2/merged/V08-00-18/merged_ntuple_927.root
p1024
aV/nfs-7/userdata/dataTuple/kludge/Run2016B_JetHT_MINIAOD_03Feb2017_ver2-v2/merged/V08-00-18/merged_ntuple_928.root
p1025
aV/nfs-7/userdata/dataTuple/kludge/Run2016B_JetHT_MINIAOD_03Feb2017_ver2-v2/merged/V08-00-18/merged_ntuple_929.root
p1026
aV/nfs-7/userdata/dataTuple/kludge/Run2016B_JetHT_MINIAOD_03Feb2017_ver2-v2/merged/V08-00-18/merged_ntuple_930.root
p1027
aV/nfs-7/userdata/dataTuple/kludge/Run2016B_JetHT_MINIAOD_03Feb2017_ver2-v2/merged/V08-00-18/merged_ntuple_931.root
p1028
aV/nfs-7/userdata/dataTuple/kludge/Run2016B_JetHT_MINIAOD_03Feb2017_ver2-v2/merged/V08-00-18/merged_ntuple_932.root
p1029
aV/nfs-7/userdata/dataTuple/kludge/Run2016B_JetHT_MINIAOD_03Feb2017_ver2-v2/merged/V08-00-18/merged_ntuple_933.root
p1030
aV/nfs-7/userdata/dataTuple/kludge/Run2016B_JetHT_MINIAOD_03Feb2017_ver2-v2/merged/V08-00-18/merged_ntuple_934.root
p1031
aV/nfs-7/userdata/dataTuple/kludge/Run2016B_JetHT_MINIAOD_03Feb2017_ver2-v2/merged/V08-00-18/merged_ntuple_935.root
p1032
aV/nfs-7/userdata/dataTuple/kludge/Run2016B_JetHT_MINIAOD_03Feb2017_ver2-v2/merged/V08-00-18/merged_ntuple_936.root
p1033
aV/nfs-7/userdata/dataTuple/kludge/Run2016B_JetHT_MINIAOD_03Feb2017_ver2-v2/merged/V08-00-18/merged_ntuple_937.root
p1034
aV/nfs-7/userdata/dataTuple/kludge/Run2016B_JetHT_MINIAOD_03Feb2017_ver2-v2/merged/V08-00-18/merged_ntuple_938.root
p1035
aV/nfs-7/userdata/dataTuple/kludge/Run2016B_JetHT_MINIAOD_03Feb2017_ver2-v2/merged/V08-00-18/merged_ntuple_939.root
p1036
aV/nfs-7/userdata/dataTuple/kludge/Run2016B_JetHT_MINIAOD_03Feb2017_ver2-v2/merged/V08-00-18/merged_ntuple_940.root
p1037
aV/nfs-7/userdata/dataTuple/kludge/Run2016B_JetHT_MINIAOD_03Feb2017_ver2-v2/merged/V08-00-18/merged_ntuple_941.root
p1038
aV/nfs-7/userdata/dataTuple/kludge/Run2016B_JetHT_MINIAOD_03Feb2017_ver2-v2/merged/V08-00-18/merged_ntuple_942.root
p1039
aV/nfs-7/userdata/dataTuple/kludge/Run2016B_JetHT_MINIAOD_03Feb2017_ver2-v2/merged/V08-00-18/merged_ntuple_943.root
p1040
aV/nfs-7/userdata/dataTuple/kludge/Run2016B_JetHT_MINIAOD_03Feb2017_ver2-v2/merged/V08-00-18/merged_ntuple_944.root
p1041
aV/nfs-7/userdata/dataTuple/kludge/Run2016B_JetHT_MINIAOD_03Feb2017_ver2-v2/merged/V08-00-18/merged_ntuple_945.root
p1042
aV/nfs-7/userdata/dataTuple/kludge/Run2016B_JetHT_MINIAOD_03Feb2017_ver2-v2/merged/V08-00-18/merged_ntuple_946.root
p1043
aV/nfs-7/userdata/dataTuple/kludge/Run2016B_JetHT_MINIAOD_03Feb2017_ver2-v2/merged/V08-00-18/merged_ntuple_947.root
p1044
aV/nfs-7/userdata/dataTuple/kludge/Run2016B_JetHT_MINIAOD_03Feb2017_ver2-v2/merged/V08-00-18/merged_ntuple_948.root
p1045
aV/nfs-7/userdata/dataTuple/kludge/Run2016B_JetHT_MINIAOD_03Feb2017_ver2-v2/merged/V08-00-18/merged_ntuple_949.root
p1046
aV/nfs-7/userdata/dataTuple/kludge/Run2016B_JetHT_MINIAOD_03Feb2017_ver2-v2/merged/V08-00-18/merged_ntuple_950.root
p1047
aV/nfs-7/userdata/dataTuple/kludge/Run2016B_JetHT_MINIAOD_03Feb2017_ver2-v2/merged/V08-00-18/merged_ntuple_951.root
p1048
aV/nfs-7/userdata/dataTuple/kludge/Run2016B_JetHT_MINIAOD_03Feb2017_ver2-v2/merged/V08-00-18/merged_ntuple_952.root
p1049
aV/nfs-7/userdata/dataTuple/kludge/Run2016B_JetHT_MINIAOD_03Feb2017_ver2-v2/merged/V08-00-18/merged_ntuple_953.root
p1050
aV/nfs-7/userdata/dataTuple/kludge/Run2016B_JetHT_MINIAOD_03Feb2017_ver2-v2/merged/V08-00-18/merged_ntuple_954.root
p1051
aV/nfs-7/userdata/dataTuple/kludge/Run2016B_JetHT_MINIAOD_03Feb2017_ver2-v2/merged/V08-00-18/merged_ntuple_955.root
p1052
aV/nfs-7/userdata/dataTuple/kludge/Run2016B_JetHT_MINIAOD_03Feb2017_ver2-v2/merged/V08-00-18/merged_ntuple_956.root
p1053
aV/nfs-7/userdata/dataTuple/kludge/Run2016B_JetHT_MINIAOD_03Feb2017_ver2-v2/merged/V08-00-18/merged_ntuple_957.root
p1054
aV/nfs-7/userdata/dataTuple/kludge/Run2016B_JetHT_MINIAOD_03Feb2017_ver2-v2/merged/V08-00-18/merged_ntuple_958.root
p1055
aV/nfs-7/userdata/dataTuple/kludge/Run2016B_JetHT_MINIAOD_03Feb2017_ver2-v2/merged/V08-00-18/merged_ntuple_959.root
p1056
aV/nfs-7/userdata/dataTuple/kludge/Run2016B_JetHT_MINIAOD_03Feb2017_ver2-v2/merged/V08-00-18/merged_ntuple_960.root
p1057
aV/nfs-7/userdata/dataTuple/kludge/Run2016B_JetHT_MINIAOD_03Feb2017_ver2-v2/merged/V08-00-18/merged_ntuple_961.root
p1058
aV/nfs-7/userdata/dataTuple/kludge/Run2016B_JetHT_MINIAOD_03Feb2017_ver2-v2/merged/V08-00-18/merged_ntuple_962.root
p1059
aV/nfs-7/userdata/dataTuple/kludge/Run2016B_JetHT_MINIAOD_03Feb2017_ver2-v2/merged/V08-00-18/merged_ntuple_963.root
p1060
aV/nfs-7/userdata/dataTuple/kludge/Run2016B_JetHT_MINIAOD_03Feb2017_ver2-v2/merged/V08-00-18/merged_ntuple_964.root
p1061
aV/nfs-7/userdata/dataTuple/kludge/Run2016B_JetHT_MINIAOD_03Feb2017_ver2-v2/merged/V08-00-18/merged_ntuple_965.root
p1062
aV/nfs-7/userdata/dataTuple/kludge/Run2016B_JetHT_MINIAOD_03Feb2017_ver2-v2/merged/V08-00-18/merged_ntuple_966.root
p1063
aV/nfs-7/userdata/dataTuple/kludge/Run2016B_JetHT_MINIAOD_03Feb2017_ver2-v2/merged/V08-00-18/merged_ntuple_967.root
p1064
aV/nfs-7/userdata/dataTuple/kludge/Run2016B_JetHT_MINIAOD_03Feb2017_ver2-v2/merged/V08-00-18/merged_ntuple_968.root
p1065
aV/nfs-7/userdata/dataTuple/kludge/Run2016B_JetHT_MINIAOD_03Feb2017_ver2-v2/merged/V08-00-18/merged_ntuple_969.root
p1066
aV/nfs-7/userdata/dataTuple/kludge/Run2016B_JetHT_MINIAOD_03Feb2017_ver2-v2/merged/V08-00-18/merged_ntuple_970.root
p1067
aV/nfs-7/userdata/dataTuple/kludge/Run2016B_JetHT_MINIAOD_03Feb2017_ver2-v2/merged/V08-00-18/merged_ntuple_971.root
p1068
aV/nfs-7/userdata/dataTuple/kludge/Run2016B_JetHT_MINIAOD_03Feb2017_ver2-v2/merged/V08-00-18/merged_ntuple_972.root
p1069
aV/nfs-7/userdata/dataTuple/kludge/Run2016B_JetHT_MINIAOD_03Feb2017_ver2-v2/merged/V08-00-18/merged_ntuple_973.root
p1070
aV/nfs-7/userdata/dataTuple/kludge/Run2016B_JetHT_MINIAOD_03Feb2017_ver2-v2/merged/V08-00-18/merged_ntuple_974.root
p1071
aV/nfs-7/userdata/dataTuple/kludge/Run2016B_JetHT_MINIAOD_03Feb2017_ver2-v2/merged/V08-00-18/merged_ntuple_975.root
p1072
aV/nfs-7/userdata/dataTuple/kludge/Run2016B_JetHT_MINIAOD_03Feb2017_ver2-v2/merged/V08-00-18/merged_ntuple_976.root
p1073
aV/nfs-7/userdata/dataTuple/kludge/Run2016B_JetHT_MINIAOD_03Feb2017_ver2-v2/merged/V08-00-18/merged_ntuple_977.root
p1074
aV/nfs-7/userdata/dataTuple/kludge/Run2016B_JetHT_MINIAOD_03Feb2017_ver2-v2/merged/V08-00-18/merged_ntuple_978.root
p1075
aV/nfs-7/userdata/dataTuple/kludge/Run2016B_JetHT_MINIAOD_03Feb2017_ver2-v2/merged/V08-00-18/merged_ntuple_979.root
p1076
aV/nfs-7/userdata/dataTuple/kludge/Run2016B_JetHT_MINIAOD_03Feb2017_ver2-v2/merged/V08-00-18/merged_ntuple_980.root
p1077
aV/nfs-7/userdata/dataTuple/kludge/Run2016B_JetHT_MINIAOD_03Feb2017_ver2-v2/merged/V08-00-18/merged_ntuple_981.root
p1078
aV/nfs-7/userdata/dataTuple/kludge/Run2016B_JetHT_MINIAOD_03Feb2017_ver2-v2/merged/V08-00-18/merged_ntuple_982.root
p1079
aV/nfs-7/userdata/dataTuple/kludge/Run2016B_JetHT_MINIAOD_03Feb2017_ver2-v2/merged/V08-00-18/merged_ntuple_983.root
p1080
aV/nfs-7/userdata/dataTuple/kludge/Run2016B_JetHT_MINIAOD_03Feb2017_ver2-v2/merged/V08-00-18/merged_ntuple_984.root
p1081
aV/nfs-7/userdata/dataTuple/kludge/Run2016B_JetHT_MINIAOD_03Feb2017_ver2-v2/merged/V08-00-18/merged_ntuple_985.root
p1082
aV/nfs-7/userdata/dataTuple/kludge/Run2016B_JetHT_MINIAOD_03Feb2017_ver2-v2/merged/V08-00-18/merged_ntuple_986.root
p1083
aV/nfs-7/userdata/dataTuple/kludge/Run2016B_JetHT_MINIAOD_03Feb2017_ver2-v2/merged/V08-00-18/merged_ntuple_987.root
p1084
aV/nfs-7/userdata/dataTuple/kludge/Run2016B_JetHT_MINIAOD_03Feb2017_ver2-v2/merged/V08-00-18/merged_ntuple_988.root
p1085
aV/nfs-7/userdata/dataTuple/kludge/Run2016B_JetHT_MINIAOD_03Feb2017_ver2-v2/merged/V08-00-18/merged_ntuple_989.root
p1086
aV/nfs-7/userdata/dataTuple/kludge/Run2016B_JetHT_MINIAOD_03Feb2017_ver2-v2/merged/V08-00-18/merged_ntuple_990.root
p1087
aV/nfs-7/userdata/dataTuple/kludge/Run2016B_JetHT_MINIAOD_03Feb2017_ver2-v2/merged/V08-00-18/merged_ntuple_991.root
p1088
aV/nfs-7/userdata/dataTuple/kludge/Run2016B_JetHT_MINIAOD_03Feb2017_ver2-v2/merged/V08-00-18/merged_ntuple_992.root
p1089
aV/nfs-7/userdata/dataTuple/kludge/Run2016B_JetHT_MINIAOD_03Feb2017_ver2-v2/merged/V08-00-18/merged_ntuple_993.root
p1090
aV/nfs-7/userdata/dataTuple/kludge/Run2016B_JetHT_MINIAOD_03Feb2017_ver2-v2/merged/V08-00-18/merged_ntuple_994.root
p1091
aV/nfs-7/userdata/dataTuple/kludge/Run2016B_JetHT_MINIAOD_03Feb2017_ver2-v2/merged/V08-00-18/merged_ntuple_995.root
p1092
aV/nfs-7/userdata/dataTuple/kludge/Run2016B_JetHT_MINIAOD_03Feb2017_ver2-v2/merged/V08-00-18/merged_ntuple_996.root
p1093
aV/nfs-7/userdata/dataTuple/kludge/Run2016B_JetHT_MINIAOD_03Feb2017_ver2-v2/merged/V08-00-18/merged_ntuple_997.root
p1094
aV/nfs-7/userdata/dataTuple/kludge/Run2016B_JetHT_MINIAOD_03Feb2017_ver2-v2/merged/V08-00-18/merged_ntuple_998.root
p1095
aV/nfs-7/userdata/dataTuple/kludge/Run2016B_JetHT_MINIAOD_03Feb2017_ver2-v2/merged/V08-00-18/merged_ntuple_999.root
p1096
aV/nfs-7/userdata/dataTuple/kludge/Run2016B_JetHT_MINIAOD_03Feb2017_ver2-v2/merged/V08-00-18/merged_ntuple_1000.root
p1097
aV/nfs-7/userdata/dataTuple/kludge/Run2016B_JetHT_MINIAOD_03Feb2017_ver2-v2/merged/V08-00-18/merged_ntuple_1001.root
p1098
aV/nfs-7/userdata/dataTuple/kludge/Run2016B_JetHT_MINIAOD_03Feb2017_ver2-v2/merged/V08-00-18/merged_ntuple_1002.root
p1099
aV/nfs-7/userdata/dataTuple/kludge/Run2016B_JetHT_MINIAOD_03Feb2017_ver2-v2/merged/V08-00-18/merged_ntuple_1003.root
p1100
aV/nfs-7/userdata/dataTuple/kludge/Run2016B_JetHT_MINIAOD_03Feb2017_ver2-v2/merged/V08-00-18/merged_ntuple_1004.root
p1101
aV/nfs-7/userdata/dataTuple/kludge/Run2016B_JetHT_MINIAOD_03Feb2017_ver2-v2/merged/V08-00-18/merged_ntuple_1005.root
p1102
aV/nfs-7/userdata/dataTuple/kludge/Run2016B_JetHT_MINIAOD_03Feb2017_ver2-v2/merged/V08-00-18/merged_ntuple_1006.root
p1103
aV/nfs-7/userdata/dataTuple/kludge/Run2016B_JetHT_MINIAOD_03Feb2017_ver2-v2/merged/V08-00-18/merged_ntuple_1007.root
p1104
aV/nfs-7/userdata/dataTuple/kludge/Run2016B_JetHT_MINIAOD_03Feb2017_ver2-v2/merged/V08-00-18/merged_ntuple_1008.root
p1105
aV/nfs-7/userdata/dataTuple/kludge/Run2016B_JetHT_MINIAOD_03Feb2017_ver2-v2/merged/V08-00-18/merged_ntuple_1009.root
p1106
aV/nfs-7/userdata/dataTuple/kludge/Run2016B_JetHT_MINIAOD_03Feb2017_ver2-v2/merged/V08-00-18/merged_ntuple_1010.root
p1107
aV/nfs-7/userdata/dataTuple/kludge/Run2016B_JetHT_MINIAOD_03Feb2017_ver2-v2/merged/V08-00-18/merged_ntuple_1011.root
p1108
aV/nfs-7/userdata/dataTuple/kludge/Run2016B_JetHT_MINIAOD_03Feb2017_ver2-v2/merged/V08-00-18/merged_ntuple_1012.root
p1109
aV/nfs-7/userdata/dataTuple/kludge/Run2016B_JetHT_MINIAOD_03Feb2017_ver2-v2/merged/V08-00-18/merged_ntuple_1013.root
p1110
aV/nfs-7/userdata/dataTuple/kludge/Run2016B_JetHT_MINIAOD_03Feb2017_ver2-v2/merged/V08-00-18/merged_ntuple_1014.root
p1111
aV/nfs-7/userdata/dataTuple/kludge/Run2016B_JetHT_MINIAOD_03Feb2017_ver2-v2/merged/V08-00-18/merged_ntuple_1015.root
p1112
aV/nfs-7/userdata/dataTuple/kludge/Run2016B_JetHT_MINIAOD_03Feb2017_ver2-v2/merged/V08-00-18/merged_ntuple_1016.root
p1113
aV/nfs-7/userdata/dataTuple/kludge/Run2016B_JetHT_MINIAOD_03Feb2017_ver2-v2/merged/V08-00-18/merged_ntuple_1017.root
p1114
aV/nfs-7/userdata/dataTuple/kludge/Run2016B_JetHT_MINIAOD_03Feb2017_ver2-v2/merged/V08-00-18/merged_ntuple_1018.root
p1115
aV/nfs-7/userdata/dataTuple/kludge/Run2016B_JetHT_MINIAOD_03Feb2017_ver2-v2/merged/V08-00-18/merged_ntuple_1019.root
p1116
aV/nfs-7/userdata/dataTuple/kludge/Run2016B_JetHT_MINIAOD_03Feb2017_ver2-v2/merged/V08-00-18/merged_ntuple_1020.root
p1117
aV/nfs-7/userdata/dataTuple/kludge/Run2016B_JetHT_MINIAOD_03Feb2017_ver2-v2/merged/V08-00-18/merged_ntuple_1021.root
p1118
aV/nfs-7/userdata/dataTuple/kludge/Run2016B_JetHT_MINIAOD_03Feb2017_ver2-v2/merged/V08-00-18/merged_ntuple_1022.root
p1119
aV/nfs-7/userdata/dataTuple/kludge/Run2016B_JetHT_MINIAOD_03Feb2017_ver2-v2/merged/V08-00-18/merged_ntuple_1023.root
p1120
aV/nfs-7/userdata/dataTuple/kludge/Run2016B_JetHT_MINIAOD_03Feb2017_ver2-v2/merged/V08-00-18/merged_ntuple_1024.root
p1121
aV/nfs-7/userdata/dataTuple/kludge/Run2016B_JetHT_MINIAOD_03Feb2017_ver2-v2/merged/V08-00-18/merged_ntuple_1025.root
p1122
aV/nfs-7/userdata/dataTuple/kludge/Run2016B_JetHT_MINIAOD_03Feb2017_ver2-v2/merged/V08-00-18/merged_ntuple_1026.root
p1123
aV/nfs-7/userdata/dataTuple/kludge/Run2016B_JetHT_MINIAOD_03Feb2017_ver2-v2/merged/V08-00-18/merged_ntuple_1027.root
p1124
aV/nfs-7/userdata/dataTuple/kludge/Run2016B_JetHT_MINIAOD_03Feb2017_ver2-v2/merged/V08-00-18/merged_ntuple_1028.root
p1125
aV/nfs-7/userdata/dataTuple/kludge/Run2016B_JetHT_MINIAOD_03Feb2017_ver2-v2/merged/V08-00-18/merged_ntuple_1029.root
p1126
aV/nfs-7/userdata/dataTuple/kludge/Run2016B_JetHT_MINIAOD_03Feb2017_ver2-v2/merged/V08-00-18/merged_ntuple_1030.root
p1127
aV/nfs-7/userdata/dataTuple/kludge/Run2016B_JetHT_MINIAOD_03Feb2017_ver2-v2/merged/V08-00-18/merged_ntuple_1031.root
p1128
aV/nfs-7/userdata/dataTuple/kludge/Run2016B_JetHT_MINIAOD_03Feb2017_ver2-v2/merged/V08-00-18/merged_ntuple_1032.root
p1129
aV/nfs-7/userdata/dataTuple/kludge/Run2016B_JetHT_MINIAOD_03Feb2017_ver2-v2/merged/V08-00-18/merged_ntuple_1033.root
p1130
aV/nfs-7/userdata/dataTuple/kludge/Run2016B_JetHT_MINIAOD_03Feb2017_ver2-v2/merged/V08-00-18/merged_ntuple_1034.root
p1131
aV/nfs-7/userdata/dataTuple/kludge/Run2016B_JetHT_MINIAOD_03Feb2017_ver2-v2/merged/V08-00-18/merged_ntuple_1035.root
p1132
aV/nfs-7/userdata/dataTuple/kludge/Run2016B_JetHT_MINIAOD_03Feb2017_ver2-v2/merged/V08-00-18/merged_ntuple_1036.root
p1133
aV/nfs-7/userdata/dataTuple/kludge/Run2016B_JetHT_MINIAOD_03Feb2017_ver2-v2/merged/V08-00-18/merged_ntuple_1037.root
p1134
aV/nfs-7/userdata/dataTuple/kludge/Run2016B_JetHT_MINIAOD_03Feb2017_ver2-v2/merged/V08-00-18/merged_ntuple_1038.root
p1135
aV/nfs-7/userdata/dataTuple/kludge/Run2016B_JetHT_MINIAOD_03Feb2017_ver2-v2/merged/V08-00-18/merged_ntuple_1039.root
p1136
aV/nfs-7/userdata/dataTuple/kludge/Run2016B_JetHT_MINIAOD_03Feb2017_ver2-v2/merged/V08-00-18/merged_ntuple_1040.root
p1137
aV/nfs-7/userdata/dataTuple/kludge/Run2016B_JetHT_MINIAOD_03Feb2017_ver2-v2/merged/V08-00-18/merged_ntuple_1041.root
p1138
aV/nfs-7/userdata/dataTuple/kludge/Run2016B_JetHT_MINIAOD_03Feb2017_ver2-v2/merged/V08-00-18/merged_ntuple_1042.root
p1139
aV/nfs-7/userdata/dataTuple/kludge/Run2016B_JetHT_MINIAOD_03Feb2017_ver2-v2/merged/V08-00-18/merged_ntuple_1043.root
p1140
aV/nfs-7/userdata/dataTuple/kludge/Run2016B_JetHT_MINIAOD_03Feb2017_ver2-v2/merged/V08-00-18/merged_ntuple_1044.root
p1141
aV/nfs-7/userdata/dataTuple/kludge/Run2016B_JetHT_MINIAOD_03Feb2017_ver2-v2/merged/V08-00-18/merged_ntuple_1045.root
p1142
aV/nfs-7/userdata/dataTuple/kludge/Run2016B_JetHT_MINIAOD_03Feb2017_ver2-v2/merged/V08-00-18/merged_ntuple_1046.root
p1143
aV/nfs-7/userdata/dataTuple/kludge/Run2016B_JetHT_MINIAOD_03Feb2017_ver2-v2/merged/V08-00-18/merged_ntuple_1047.root
p1144
aV/nfs-7/userdata/dataTuple/kludge/Run2016B_JetHT_MINIAOD_03Feb2017_ver2-v2/merged/V08-00-18/merged_ntuple_1048.root
p1145
aV/nfs-7/userdata/dataTuple/kludge/Run2016B_JetHT_MINIAOD_03Feb2017_ver2-v2/merged/V08-00-18/merged_ntuple_1049.root
p1146
aV/nfs-7/userdata/dataTuple/kludge/Run2016B_JetHT_MINIAOD_03Feb2017_ver2-v2/merged/V08-00-18/merged_ntuple_1050.root
p1147
aV/nfs-7/userdata/dataTuple/kludge/Run2016B_JetHT_MINIAOD_03Feb2017_ver2-v2/merged/V08-00-18/merged_ntuple_1051.root
p1148
aV/nfs-7/userdata/dataTuple/kludge/Run2016B_JetHT_MINIAOD_03Feb2017_ver2-v2/merged/V08-00-18/merged_ntuple_1052.root
p1149
aV/nfs-7/userdata/dataTuple/kludge/Run2016B_JetHT_MINIAOD_03Feb2017_ver2-v2/merged/V08-00-18/merged_ntuple_1053.root
p1150
aV/nfs-7/userdata/dataTuple/kludge/Run2016B_JetHT_MINIAOD_03Feb2017_ver2-v2/merged/V08-00-18/merged_ntuple_1054.root
p1151
aV/nfs-7/userdata/dataTuple/kludge/Run2016B_JetHT_MINIAOD_03Feb2017_ver2-v2/merged/V08-00-18/merged_ntuple_1055.root
p1152
aV/nfs-7/userdata/dataTuple/kludge/Run2016B_JetHT_MINIAOD_03Feb2017_ver2-v2/merged/V08-00-18/merged_ntuple_1056.root
p1153
aV/nfs-7/userdata/dataTuple/kludge/Run2016B_JetHT_MINIAOD_03Feb2017_ver2-v2/merged/V08-00-18/merged_ntuple_1057.root
p1154
aV/nfs-7/userdata/dataTuple/kludge/Run2016B_JetHT_MINIAOD_03Feb2017_ver2-v2/merged/V08-00-18/merged_ntuple_1058.root
p1155
aV/nfs-7/userdata/dataTuple/kludge/Run2016B_JetHT_MINIAOD_03Feb2017_ver2-v2/merged/V08-00-18/merged_ntuple_1059.root
p1156
aV/nfs-7/userdata/dataTuple/kludge/Run2016B_JetHT_MINIAOD_03Feb2017_ver2-v2/merged/V08-00-18/merged_ntuple_1060.root
p1157
aV/nfs-7/userdata/dataTuple/kludge/Run2016B_JetHT_MINIAOD_03Feb2017_ver2-v2/merged/V08-00-18/merged_ntuple_1061.root
p1158
aV/nfs-7/userdata/dataTuple/kludge/Run2016B_JetHT_MINIAOD_03Feb2017_ver2-v2/merged/V08-00-18/merged_ntuple_1062.root
p1159
aV/nfs-7/userdata/dataTuple/kludge/Run2016B_JetHT_MINIAOD_03Feb2017_ver2-v2/merged/V08-00-18/merged_ntuple_1063.root
p1160
aV/nfs-7/userdata/dataTuple/kludge/Run2016B_JetHT_MINIAOD_03Feb2017_ver2-v2/merged/V08-00-18/merged_ntuple_1064.root
p1161
aV/nfs-7/userdata/dataTuple/kludge/Run2016B_JetHT_MINIAOD_03Feb2017_ver2-v2/merged/V08-00-18/merged_ntuple_1065.root
p1162
aV/nfs-7/userdata/dataTuple/kludge/Run2016B_JetHT_MINIAOD_03Feb2017_ver2-v2/merged/V08-00-18/merged_ntuple_1066.root
p1163
aV/nfs-7/userdata/dataTuple/kludge/Run2016B_JetHT_MINIAOD_03Feb2017_ver2-v2/merged/V08-00-18/merged_ntuple_1067.root
p1164
aV/nfs-7/userdata/dataTuple/kludge/Run2016B_JetHT_MINIAOD_03Feb2017_ver2-v2/merged/V08-00-18/merged_ntuple_1068.root
p1165
aV/nfs-7/userdata/dataTuple/kludge/Run2016B_JetHT_MINIAOD_03Feb2017_ver2-v2/merged/V08-00-18/merged_ntuple_1069.root
p1166
aV/nfs-7/userdata/dataTuple/kludge/Run2016B_JetHT_MINIAOD_03Feb2017_ver2-v2/merged/V08-00-18/merged_ntuple_1070.root
p1167
aV/nfs-7/userdata/dataTuple/kludge/Run2016B_JetHT_MINIAOD_03Feb2017_ver2-v2/merged/V08-00-18/merged_ntuple_1071.root
p1168
aV/nfs-7/userdata/dataTuple/kludge/Run2016B_JetHT_MINIAOD_03Feb2017_ver2-v2/merged/V08-00-18/merged_ntuple_1072.root
p1169
aV/nfs-7/userdata/dataTuple/kludge/Run2016B_JetHT_MINIAOD_03Feb2017_ver2-v2/merged/V08-00-18/merged_ntuple_1073.root
p1170
aV/nfs-7/userdata/dataTuple/kludge/Run2016B_JetHT_MINIAOD_03Feb2017_ver2-v2/merged/V08-00-18/merged_ntuple_1074.root
p1171
aV/nfs-7/userdata/dataTuple/kludge/Run2016B_JetHT_MINIAOD_03Feb2017_ver2-v2/merged/V08-00-18/merged_ntuple_1075.root
p1172
aV/nfs-7/userdata/dataTuple/kludge/Run2016B_JetHT_MINIAOD_03Feb2017_ver2-v2/merged/V08-00-18/merged_ntuple_1076.root
p1173
aV/nfs-7/userdata/dataTuple/kludge/Run2016B_JetHT_MINIAOD_03Feb2017_ver2-v2/merged/V08-00-18/merged_ntuple_1077.root
p1174
aV/nfs-7/userdata/dataTuple/kludge/Run2016B_JetHT_MINIAOD_03Feb2017_ver2-v2/merged/V08-00-18/merged_ntuple_1078.root
p1175
aV/nfs-7/userdata/dataTuple/kludge/Run2016B_JetHT_MINIAOD_03Feb2017_ver2-v2/merged/V08-00-18/merged_ntuple_1079.root
p1176
aV/nfs-7/userdata/dataTuple/kludge/Run2016B_JetHT_MINIAOD_03Feb2017_ver2-v2/merged/V08-00-18/merged_ntuple_1080.root
p1177
aV/nfs-7/userdata/dataTuple/kludge/Run2016B_JetHT_MINIAOD_03Feb2017_ver2-v2/merged/V08-00-18/merged_ntuple_1081.root
p1178
aV/nfs-7/userdata/dataTuple/kludge/Run2016B_JetHT_MINIAOD_03Feb2017_ver2-v2/merged/V08-00-18/merged_ntuple_1082.root
p1179
aV/nfs-7/userdata/dataTuple/kludge/Run2016B_JetHT_MINIAOD_03Feb2017_ver2-v2/merged/V08-00-18/merged_ntuple_1083.root
p1180
aV/nfs-7/userdata/dataTuple/kludge/Run2016B_JetHT_MINIAOD_03Feb2017_ver2-v2/merged/V08-00-18/merged_ntuple_1084.root
p1181
aV/nfs-7/userdata/dataTuple/kludge/Run2016B_JetHT_MINIAOD_03Feb2017_ver2-v2/merged/V08-00-18/merged_ntuple_1085.root
p1182
aV/nfs-7/userdata/dataTuple/kludge/Run2016B_JetHT_MINIAOD_03Feb2017_ver2-v2/merged/V08-00-18/merged_ntuple_1086.root
p1183
aV/nfs-7/userdata/dataTuple/kludge/Run2016B_JetHT_MINIAOD_03Feb2017_ver2-v2/merged/V08-00-18/merged_ntuple_1087.root
p1184
aV/nfs-7/userdata/dataTuple/kludge/Run2016B_JetHT_MINIAOD_03Feb2017_ver2-v2/merged/V08-00-18/merged_ntuple_1088.root
p1185
aV/nfs-7/userdata/dataTuple/kludge/Run2016B_JetHT_MINIAOD_03Feb2017_ver2-v2/merged/V08-00-18/merged_ntuple_1089.root
p1186
aV/nfs-7/userdata/dataTuple/kludge/Run2016B_JetHT_MINIAOD_03Feb2017_ver2-v2/merged/V08-00-18/merged_ntuple_1090.root
p1187
aV/nfs-7/userdata/dataTuple/kludge/Run2016B_JetHT_MINIAOD_03Feb2017_ver2-v2/merged/V08-00-18/merged_ntuple_1091.root
p1188
aV/nfs-7/userdata/dataTuple/kludge/Run2016B_JetHT_MINIAOD_03Feb2017_ver2-v2/merged/V08-00-18/merged_ntuple_1092.root
p1189
aV/nfs-7/userdata/dataTuple/kludge/Run2016B_JetHT_MINIAOD_03Feb2017_ver2-v2/merged/V08-00-18/merged_ntuple_1093.root
p1190
aV/nfs-7/userdata/dataTuple/kludge/Run2016B_JetHT_MINIAOD_03Feb2017_ver2-v2/merged/V08-00-18/merged_ntuple_1094.root
p1191
aV/nfs-7/userdata/dataTuple/kludge/Run2016B_JetHT_MINIAOD_03Feb2017_ver2-v2/merged/V08-00-18/merged_ntuple_1095.root
p1192
aV/nfs-7/userdata/dataTuple/kludge/Run2016B_JetHT_MINIAOD_03Feb2017_ver2-v2/merged/V08-00-18/merged_ntuple_1096.root
p1193
aV/nfs-7/userdata/dataTuple/kludge/Run2016B_JetHT_MINIAOD_03Feb2017_ver2-v2/merged/V08-00-18/merged_ntuple_1097.root
p1194
aV/nfs-7/userdata/dataTuple/kludge/Run2016B_JetHT_MINIAOD_03Feb2017_ver2-v2/merged/V08-00-18/merged_ntuple_1098.root
p1195
aV/nfs-7/userdata/dataTuple/kludge/Run2016B_JetHT_MINIAOD_03Feb2017_ver2-v2/merged/V08-00-18/merged_ntuple_1099.root
p1196
aV/nfs-7/userdata/dataTuple/kludge/Run2016B_JetHT_MINIAOD_03Feb2017_ver2-v2/merged/V08-00-18/merged_ntuple_1100.root
p1197
aV/nfs-7/userdata/dataTuple/kludge/Run2016B_JetHT_MINIAOD_03Feb2017_ver2-v2/merged/V08-00-18/merged_ntuple_1101.root
p1198
assS'nevents_unmerged'
p1199
I0
sS'cmsswver'
p1200
g85
sS'postprocessing'
p1201
(dp1202
sS'nevents_merged'
p1203
I0
sS'nevents_DAS'
p1204
I0
ssS'misc'
p1205
(dp1206
S'rootfiles'
p1207
(lp1208
sS'crab_config'
p1209
NsS'last_saved'
p1210
I1508238819
sS'handled_more_than_1k'
p1211
I00
sS'can_skip_tail'
p1212
I00
sS'email_when_done'
p1213
I00
sS'update_dis_when_done'
p1214
I01
sS'pfx_babies'
p1215
S'babies'
p1216
sS'logfiles'
p1217
(lp1218
sS'pfx_pset'
p1219
S'pset'
p1220
sS'pfx_crab'
p1221
S'crab'
p1222
ss.