(dp0
S'sample'
p1
(dp2
S'gtag'
p3
NsS'isdata'
p4
I00
sS'dataset'
p5
S'/DoubleEG/Run2016G-23Sep2016-v1/MINIAOD'
p6
sS'pset'
p7
S''
p8
sS'finaldir'
p9
g8
sS'ijob_to_nevents'
p10
(dp11
sS'basedir'
p12
S'/home/users/dpgilber/MT2AnalysisNebraskaCMS3/babymaker/batchsubmit/'
p13
sS'kfact'
p14
NsS'imerged_to_ijob'
p15
(dp16
sS'crab'
p17
(dp18
S'resubmissions'
p19
I0
sS'datetime'
p20
NsS'jobs_left'
p21
(lp22
sS'requestname'
p23
S'DoubleEG_Run2016G-23Sep2016-v1'
p24
sS'taskdir'
p25
S'babies/babies_DoubleEG_Run2016G-23Sep2016-v1_V00-08-15'
p26
sS'outputdir'
p27
NsS'jobs_left_tail'
p28
(lp29
ssS'shortname'
p30
g24
sS'xsec'
p31
NsS'type'
p32
S'BABY'
p33
sS'checks'
p34
(dp35
sS'sparms'
p36
(lp37
sS'status'
p38
S'condor'
p39
sS'ijob_to_miniaod'
p40
(dp41
sS'cms3tag'
p42
VCMS3_V08-00-14
p43
sS'specialdir'
p44
g8
sS'user'
p45
S'dpgilber'
p46
sS'efact'
p47
NsS'baby'
p48
(dp49
S'condor_done'
p50
I0
sS'outputdir_pattern'
p51
S'/hadoop/cms/store/user/dpgilber/AutoTwopler_babies/${ANALYSIS}_${BABY_TAG}/${SHORTNAME}/'
p52
sS'user_executable'
p53
S'/home/users/dpgilber/MT2AnalysisNebraskaCMS3/babymaker/batchsubmit/job_input/wrapper_auto.sh'
p54
sg5
g6
sS'scramarch'
p55
S'slc6_amd64_gcc530'
p56
sS'sweepRoot_script'
p57
S'/home/users/dpgilber/MT2AnalysisNebraskaCMS3/babymaker/batchsubmit//babies/sweepRoot.sh'
p58
sS'executable_script'
p59
S'/home/users/dpgilber/MT2AnalysisNebraskaCMS3/babymaker/batchsubmit//babies/baby_ducks.sh'
p60
sg9
S'/hadoop/cms/store/user/dpgilber/AutoTwopler_babies/MT2_V00-08-15/DoubleEG_Run2016G-23Sep2016-v1/'
p61
sS'total'
p62
I0
sS'nevents'
p63
I-1
sS'output_names_nosplit'
p64
S'output.root,skim.root,skim_rphi.root'
p65
sS'imerged'
p66
(lp67
sS'sweepRooted'
p68
I0
sS'exe_args'
p69
(lp70
g8
asS'user_package'
p71
S'/home/users/dpgilber/MT2AnalysisNebraskaCMS3/babymaker/batchsubmit/job_input/package.tar.gz'
p72
sS'exe_args_nosplit'
p73
g8
sS'running'
p74
I0
sS'output_names'
p75
(lp76
S'output.root'
p77
aS'skim.root'
p78
aS'skim_rphi.root'
p79
asS'package'
p80
S'/home/users/dpgilber/MT2AnalysisNebraskaCMS3/babymaker/batchsubmit//babies/package.tar.gz'
p81
sS'cmsswver'
p82
S'CMSSW_8_0_21'
p83
sS'have_set_inputs'
p84
I01
sS'analysis'
p85
S'MT2'
p86
sS'merging_script'
p87
S'/home/users/dpgilber/MT2AnalysisNebraskaCMS3/babymaker/batchsubmit//babies/merging_script.sh'
p88
sS'idle'
p89
I0
sS'baby_tag'
p90
S'V00-08-15'
p91
sS'imerged_swept'
p92
(lp93
sS'input_filenames'
p94
(lp95
ssS'nevents_unmerged'
p96
I0
sg82
g83
sS'postprocessing'
p97
(dp98
sS'nevents_merged'
p99
I0
sS'nevents_DAS'
p100
I0
ssS'misc'
p101
(dp102
S'rootfiles'
p103
(lp104
sS'crab_config'
p105
NsS'last_saved'
p106
I1507076106
sS'handled_more_than_1k'
p107
I00
sS'can_skip_tail'
p108
I00
sS'email_when_done'
p109
I00
sS'update_dis_when_done'
p110
I01
sS'pfx_babies'
p111
S'babies'
p112
sS'logfiles'
p113
(lp114
sS'pfx_pset'
p115
g7
sS'pfx_crab'
p116
g17
ss.