(dp0
S'sample'
p1
(dp2
S'gtag'
p3
NsS'isdata'
p4
I00
sS'dataset'
p5
S'/JetHT/Run2016F-03Feb2017-v1/CMS3'
p6
sS'pset'
p7
S''
p8
sS'finaldir'
p9
g8
sS'ijob_to_nevents'
p10
(dp11
sS'basedir'
p12
S'/home/users/dpgilber/MT2AnalysisNebraskaCMS3/babymaker/batchsubmit/'
p13
sS'kfact'
p14
NsS'imerged_to_ijob'
p15
(dp16
sS'crab'
p17
(dp18
S'resubmissions'
p19
I0
sS'datetime'
p20
NsS'jobs_left'
p21
(lp22
sS'requestname'
p23
S'JetHT_Run2016F-03Feb2017-v1'
p24
sS'taskdir'
p25
S'babies/babies_JetHT_Run2016F-03Feb2017-v1_2016_El50noID'
p26
sS'outputdir'
p27
NsS'jobs_left_tail'
p28
(lp29
ssS'shortname'
p30
g24
sS'xsec'
p31
NsS'type'
p32
S'BABY'
p33
sS'checks'
p34
(dp35
sS'sparms'
p36
(lp37
sS'status'
p38
S'condor'
p39
sS'ijob_to_miniaod'
p40
(dp41
sS'cms3tag'
p42
VCMS3_V08-00-18
p43
sS'specialdir'
p44
g8
sS'user'
p45
S'dpgilber'
p46
sS'efact'
p47
NsS'baby'
p48
(dp49
S'condor_done'
p50
I283
sS'outputdir_pattern'
p51
S'/hadoop/cms/store/user/dpgilber/AutoTwopler_babies/${ANALYSIS}_${BABY_TAG}/${SHORTNAME}/'
p52
sS'user_executable'
p53
S'/home/users/dpgilber/MT2AnalysisNebraskaCMS3/babymaker/batchsubmit/job_input/wrapper_auto.sh'
p54
sS'dataset'
p55
g6
sS'scramarch'
p56
S'slc6_amd64_gcc530'
p57
sS'sweepRoot_script'
p58
S'/home/users/dpgilber/MT2AnalysisNebraskaCMS3/babymaker/batchsubmit//babies/sweepRoot.sh'
p59
sS'total'
p60
I475
sS'finaldir'
p61
S'/hadoop/cms/store/user/dpgilber/AutoTwopler_babies/MT2_2016_El50noID/JetHT_Run2016F-03Feb2017-v1/'
p62
sS'nevents'
p63
I-1
sS'output_names_nosplit'
p64
S'output.root,skim.root,skim_rphi.root'
p65
sS'imerged'
p66
(lp67
I1
aI2
aI3
aI4
aI5
aI6
aI7
aI8
aI9
aI10
aI11
aI12
aI13
aI14
aI15
aI16
aI17
aI18
aI19
aI20
aI21
aI22
aI23
aI24
aI25
aI26
aI27
aI28
aI29
aI30
aI31
aI32
aI33
aI34
aI35
aI36
aI37
aI38
aI39
aI40
aI41
aI42
aI43
aI44
aI45
aI46
aI47
aI48
aI49
aI50
aI51
aI52
aI53
aI54
aI55
aI56
aI57
aI58
aI59
aI60
aI61
aI62
aI63
aI64
aI65
aI66
aI67
aI68
aI69
aI70
aI71
aI72
aI73
aI74
aI75
aI76
aI77
aI78
aI79
aI80
aI81
aI82
aI83
aI84
aI85
aI86
aI87
aI88
aI89
aI90
aI91
aI92
aI93
aI94
aI95
aI96
aI97
aI98
aI99
aI100
aI101
aI102
aI103
aI104
aI105
aI106
aI107
aI108
aI109
aI110
aI111
aI112
aI113
aI114
aI115
aI116
aI117
aI118
aI119
aI120
aI121
aI122
aI123
aI124
aI125
aI126
aI127
aI128
aI129
aI130
aI131
aI132
aI133
aI134
aI135
aI136
aI137
aI138
aI139
aI140
aI141
aI142
aI143
aI144
aI145
aI146
aI147
aI148
aI149
aI150
aI151
aI152
aI153
aI154
aI155
aI156
aI157
aI158
aI159
aI160
aI161
aI162
aI163
aI164
aI165
aI166
aI167
aI168
aI169
aI170
aI171
aI172
aI173
aI174
aI175
aI176
aI177
aI178
aI179
aI180
aI181
aI182
aI183
aI184
aI185
aI186
aI187
aI188
aI189
aI190
aI191
aI192
aI193
aI194
aI195
aI196
aI197
aI198
aI199
aI200
aI201
aI202
aI203
aI204
aI205
aI206
aI207
aI208
aI209
aI210
aI211
aI212
aI213
aI214
aI215
aI216
aI217
aI218
aI219
aI220
aI221
aI222
aI223
aI224
aI225
aI226
aI227
aI228
aI229
aI230
aI231
aI232
aI233
aI234
aI235
aI236
aI237
aI238
aI239
aI240
aI241
aI242
aI243
aI244
aI245
aI246
aI247
aI248
aI249
aI250
aI251
aI252
aI253
aI254
aI255
aI256
aI257
aI258
aI259
aI260
aI261
aI262
aI263
aI264
aI265
aI266
aI267
aI268
aI269
aI270
aI271
aI272
aI273
aI274
aI275
aI276
aI277
aI278
aI279
aI280
aI281
aI282
aI283
aI284
aI285
aI286
aI287
aI288
aI289
aI290
aI291
aI292
aI293
aI294
aI295
aI296
aI297
aI298
aI299
aI300
aI301
aI302
aI303
aI304
aI305
aI306
aI307
aI308
aI309
aI310
aI311
aI312
aI313
aI314
aI315
aI316
aI317
aI318
aI319
aI320
aI321
aI322
aI323
aI324
aI325
aI326
aI327
aI328
aI329
aI330
aI331
aI332
aI333
aI334
aI335
aI336
aI337
aI338
aI339
aI340
aI341
aI342
aI343
aI344
aI345
aI346
aI347
aI348
aI349
aI350
aI351
aI352
aI353
aI354
aI355
aI356
aI357
aI358
aI359
aI360
aI361
aI362
aI363
aI364
aI365
aI366
aI367
aI368
aI369
aI370
aI371
aI372
aI373
aI374
aI375
aI376
aI377
aI378
aI379
aI380
aI381
aI382
aI383
aI384
aI385
aI386
aI387
aI388
aI389
aI390
aI391
aI392
aI393
aI394
aI395
aI396
aI397
aI398
aI399
aI400
aI401
aI402
aI403
aI404
aI405
aI406
aI407
aI408
aI409
aI410
aI411
aI412
aI413
aI414
aI415
aI416
aI417
aI418
aI419
aI420
aI421
aI422
aI423
aI424
aI425
aI426
aI427
aI428
aI429
aI430
aI431
aI432
aI433
aI434
aI435
aI436
aI437
aI438
aI439
aI440
aI441
aI442
aI443
aI444
aI445
aI446
aI447
aI448
aI449
aI450
aI451
aI452
aI453
aI454
aI455
aI456
aI457
aI458
aI459
aI460
aI461
aI462
aI463
aI464
aI465
aI466
aI467
aI468
aI469
aI470
aI471
aI472
aI473
aI474
aI475
asS'sweepRooted'
p68
I283
sS'exe_args'
p69
(lp70
g8
asS'user_package'
p71
S'/home/users/dpgilber/MT2AnalysisNebraskaCMS3/babymaker/batchsubmit/job_input/package.tar.gz'
p72
sS'exe_args_nosplit'
p73
g8
sS'running'
p74
I0
sS'output_names'
p75
(lp76
S'output.root'
p77
aS'skim.root'
p78
aS'skim_rphi.root'
p79
asS'package'
p80
S'/home/users/dpgilber/MT2AnalysisNebraskaCMS3/babymaker/batchsubmit//babies/package.tar.gz'
p81
sS'cmsswver'
p82
S'CMSSW_8_0_21'
p83
sS'have_set_inputs'
p84
I01
sS'analysis'
p85
S'MT2'
p86
sS'merging_script'
p87
S'/home/users/dpgilber/MT2AnalysisNebraskaCMS3/babymaker/batchsubmit//babies/merging_script.sh'
p88
sS'idle'
p89
I475
sS'baby_tag'
p90
S'2016_El50noID'
p91
sS'imerged_swept'
p92
(lp93
I128
aI266
aI268
aI175
aI223
aI34
aI346
aI198
aI349
aI103
aI320
aI440
aI318
aI46
aI473
aI416
aI164
aI423
aI11
aI238
aI15
aI241
aI342
aI177
aI42
aI280
aI401
aI149
aI24
aI1
aI36
aI13
aI45
aI376
aI169
aI110
aI375
aI165
aI31
aI205
aI250
aI4
aI14
aI81
aI12
aI2
aI79
aI287
aI352
aI117
aI153
aI28
aI204
aI319
aI64
aI369
aI114
aI315
aI9
aI290
aI108
aI127
aI351
aI84
aI23
aI176
aI6
aI408
aI146
aI261
aI152
aI443
aI356
aI29
aI172
aI470
aI5
aI16
aI339
aI186
aI412
aI191
aI47
aI248
aI105
aI312
aI160
aI242
aI60
aI272
aI113
aI98
aI429
aI8
aI236
aI82
aI245
aI151
aI88
aI154
aI252
aI254
aI89
aI267
aI265
aI334
aI249
aI85
aI400
aI226
aI188
aI116
aI273
aI447
aI63
aI386
aI263
aI30
aI262
aI120
aI102
aI378
aI196
aI71
aI65
aI104
aI74
aI331
aI434
aI277
aI345
aI25
aI126
aI3
aI413
aI7
aI302
aI163
aI61
aI118
aI207
aI256
aI33
aI109
aI333
aI73
aI225
aI297
aI19
aI293
aI227
aI59
aI148
aI411
aI208
aI130
aI22
aI119
aI41
aI202
aI380
aI362
aI270
aI299
aI32
aI360
aI95
aI453
aI457
aI183
aI17
aI86
aI407
aI216
aI123
aI348
aI26
aI20
aI21
aI372
aI327
aI425
aI428
aI271
aI244
aI314
aI364
aI99
aI43
aI141
aI206
aI52
aI53
aI55
aI409
aI218
aI448
aI259
aI219
aI461
aI438
aI449
aI300
aI37
aI38
aI335
aI298
aI131
aI229
aI341
aI200
aI35
aI173
aI213
aI40
aI10
aI279
aI450
aI178
aI155
aI381
aI431
aI209
aI122
aI195
aI138
aI39
aI18
aI194
aI90
aI69
aI365
aI296
aI294
aI145
aI139
aI310
aI384
aI330
aI398
aI170
aI404
aI240
aI418
aI132
aI311
aI51
aI27
aI92
aI307
aI291
aI467
aI465
aI433
aI313
aI197
aI48
aI234
aI237
aI189
aI140
aI101
aI288
aI321
aI67
aI464
aI368
aI49
aI44
aI285
aI395
aI166
aI343
aI276
aI83
aI452
aI451
aI243
aI50
aI158
aI303
aI361
aI182
asS'input_filenames'
p94
(lp95
V/nfs-7/userdata/dataTuple/kludge/Run2016F_JetHT_MINIAOD_03Feb2017-v1/merged/V08-00-18/merged_ntuple_1.root
p96
aV/nfs-7/userdata/dataTuple/kludge/Run2016F_JetHT_MINIAOD_03Feb2017-v1/merged/V08-00-18/merged_ntuple_2.root
p97
aV/nfs-7/userdata/dataTuple/kludge/Run2016F_JetHT_MINIAOD_03Feb2017-v1/merged/V08-00-18/merged_ntuple_3.root
p98
aV/nfs-7/userdata/dataTuple/kludge/Run2016F_JetHT_MINIAOD_03Feb2017-v1/merged/V08-00-18/merged_ntuple_4.root
p99
aV/nfs-7/userdata/dataTuple/kludge/Run2016F_JetHT_MINIAOD_03Feb2017-v1/merged/V08-00-18/merged_ntuple_5.root
p100
aV/nfs-7/userdata/dataTuple/kludge/Run2016F_JetHT_MINIAOD_03Feb2017-v1/merged/V08-00-18/merged_ntuple_6.root
p101
aV/nfs-7/userdata/dataTuple/kludge/Run2016F_JetHT_MINIAOD_03Feb2017-v1/merged/V08-00-18/merged_ntuple_7.root
p102
aV/nfs-7/userdata/dataTuple/kludge/Run2016F_JetHT_MINIAOD_03Feb2017-v1/merged/V08-00-18/merged_ntuple_8.root
p103
aV/nfs-7/userdata/dataTuple/kludge/Run2016F_JetHT_MINIAOD_03Feb2017-v1/merged/V08-00-18/merged_ntuple_9.root
p104
aV/nfs-7/userdata/dataTuple/kludge/Run2016F_JetHT_MINIAOD_03Feb2017-v1/merged/V08-00-18/merged_ntuple_10.root
p105
aV/nfs-7/userdata/dataTuple/kludge/Run2016F_JetHT_MINIAOD_03Feb2017-v1/merged/V08-00-18/merged_ntuple_11.root
p106
aV/nfs-7/userdata/dataTuple/kludge/Run2016F_JetHT_MINIAOD_03Feb2017-v1/merged/V08-00-18/merged_ntuple_12.root
p107
aV/nfs-7/userdata/dataTuple/kludge/Run2016F_JetHT_MINIAOD_03Feb2017-v1/merged/V08-00-18/merged_ntuple_13.root
p108
aV/nfs-7/userdata/dataTuple/kludge/Run2016F_JetHT_MINIAOD_03Feb2017-v1/merged/V08-00-18/merged_ntuple_14.root
p109
aV/nfs-7/userdata/dataTuple/kludge/Run2016F_JetHT_MINIAOD_03Feb2017-v1/merged/V08-00-18/merged_ntuple_15.root
p110
aV/nfs-7/userdata/dataTuple/kludge/Run2016F_JetHT_MINIAOD_03Feb2017-v1/merged/V08-00-18/merged_ntuple_16.root
p111
aV/nfs-7/userdata/dataTuple/kludge/Run2016F_JetHT_MINIAOD_03Feb2017-v1/merged/V08-00-18/merged_ntuple_17.root
p112
aV/nfs-7/userdata/dataTuple/kludge/Run2016F_JetHT_MINIAOD_03Feb2017-v1/merged/V08-00-18/merged_ntuple_18.root
p113
aV/nfs-7/userdata/dataTuple/kludge/Run2016F_JetHT_MINIAOD_03Feb2017-v1/merged/V08-00-18/merged_ntuple_19.root
p114
aV/nfs-7/userdata/dataTuple/kludge/Run2016F_JetHT_MINIAOD_03Feb2017-v1/merged/V08-00-18/merged_ntuple_20.root
p115
aV/nfs-7/userdata/dataTuple/kludge/Run2016F_JetHT_MINIAOD_03Feb2017-v1/merged/V08-00-18/merged_ntuple_21.root
p116
aV/nfs-7/userdata/dataTuple/kludge/Run2016F_JetHT_MINIAOD_03Feb2017-v1/merged/V08-00-18/merged_ntuple_22.root
p117
aV/nfs-7/userdata/dataTuple/kludge/Run2016F_JetHT_MINIAOD_03Feb2017-v1/merged/V08-00-18/merged_ntuple_23.root
p118
aV/nfs-7/userdata/dataTuple/kludge/Run2016F_JetHT_MINIAOD_03Feb2017-v1/merged/V08-00-18/merged_ntuple_24.root
p119
aV/nfs-7/userdata/dataTuple/kludge/Run2016F_JetHT_MINIAOD_03Feb2017-v1/merged/V08-00-18/merged_ntuple_25.root
p120
aV/nfs-7/userdata/dataTuple/kludge/Run2016F_JetHT_MINIAOD_03Feb2017-v1/merged/V08-00-18/merged_ntuple_26.root
p121
aV/nfs-7/userdata/dataTuple/kludge/Run2016F_JetHT_MINIAOD_03Feb2017-v1/merged/V08-00-18/merged_ntuple_27.root
p122
aV/nfs-7/userdata/dataTuple/kludge/Run2016F_JetHT_MINIAOD_03Feb2017-v1/merged/V08-00-18/merged_ntuple_28.root
p123
aV/nfs-7/userdata/dataTuple/kludge/Run2016F_JetHT_MINIAOD_03Feb2017-v1/merged/V08-00-18/merged_ntuple_29.root
p124
aV/nfs-7/userdata/dataTuple/kludge/Run2016F_JetHT_MINIAOD_03Feb2017-v1/merged/V08-00-18/merged_ntuple_30.root
p125
aV/nfs-7/userdata/dataTuple/kludge/Run2016F_JetHT_MINIAOD_03Feb2017-v1/merged/V08-00-18/merged_ntuple_31.root
p126
aV/nfs-7/userdata/dataTuple/kludge/Run2016F_JetHT_MINIAOD_03Feb2017-v1/merged/V08-00-18/merged_ntuple_32.root
p127
aV/nfs-7/userdata/dataTuple/kludge/Run2016F_JetHT_MINIAOD_03Feb2017-v1/merged/V08-00-18/merged_ntuple_33.root
p128
aV/nfs-7/userdata/dataTuple/kludge/Run2016F_JetHT_MINIAOD_03Feb2017-v1/merged/V08-00-18/merged_ntuple_34.root
p129
aV/nfs-7/userdata/dataTuple/kludge/Run2016F_JetHT_MINIAOD_03Feb2017-v1/merged/V08-00-18/merged_ntuple_35.root
p130
aV/nfs-7/userdata/dataTuple/kludge/Run2016F_JetHT_MINIAOD_03Feb2017-v1/merged/V08-00-18/merged_ntuple_36.root
p131
aV/nfs-7/userdata/dataTuple/kludge/Run2016F_JetHT_MINIAOD_03Feb2017-v1/merged/V08-00-18/merged_ntuple_37.root
p132
aV/nfs-7/userdata/dataTuple/kludge/Run2016F_JetHT_MINIAOD_03Feb2017-v1/merged/V08-00-18/merged_ntuple_38.root
p133
aV/nfs-7/userdata/dataTuple/kludge/Run2016F_JetHT_MINIAOD_03Feb2017-v1/merged/V08-00-18/merged_ntuple_39.root
p134
aV/nfs-7/userdata/dataTuple/kludge/Run2016F_JetHT_MINIAOD_03Feb2017-v1/merged/V08-00-18/merged_ntuple_40.root
p135
aV/nfs-7/userdata/dataTuple/kludge/Run2016F_JetHT_MINIAOD_03Feb2017-v1/merged/V08-00-18/merged_ntuple_41.root
p136
aV/nfs-7/userdata/dataTuple/kludge/Run2016F_JetHT_MINIAOD_03Feb2017-v1/merged/V08-00-18/merged_ntuple_42.root
p137
aV/nfs-7/userdata/dataTuple/kludge/Run2016F_JetHT_MINIAOD_03Feb2017-v1/merged/V08-00-18/merged_ntuple_43.root
p138
aV/nfs-7/userdata/dataTuple/kludge/Run2016F_JetHT_MINIAOD_03Feb2017-v1/merged/V08-00-18/merged_ntuple_44.root
p139
aV/nfs-7/userdata/dataTuple/kludge/Run2016F_JetHT_MINIAOD_03Feb2017-v1/merged/V08-00-18/merged_ntuple_45.root
p140
aV/nfs-7/userdata/dataTuple/kludge/Run2016F_JetHT_MINIAOD_03Feb2017-v1/merged/V08-00-18/merged_ntuple_46.root
p141
aV/nfs-7/userdata/dataTuple/kludge/Run2016F_JetHT_MINIAOD_03Feb2017-v1/merged/V08-00-18/merged_ntuple_47.root
p142
aV/nfs-7/userdata/dataTuple/kludge/Run2016F_JetHT_MINIAOD_03Feb2017-v1/merged/V08-00-18/merged_ntuple_48.root
p143
aV/nfs-7/userdata/dataTuple/kludge/Run2016F_JetHT_MINIAOD_03Feb2017-v1/merged/V08-00-18/merged_ntuple_49.root
p144
aV/nfs-7/userdata/dataTuple/kludge/Run2016F_JetHT_MINIAOD_03Feb2017-v1/merged/V08-00-18/merged_ntuple_50.root
p145
aV/nfs-7/userdata/dataTuple/kludge/Run2016F_JetHT_MINIAOD_03Feb2017-v1/merged/V08-00-18/merged_ntuple_51.root
p146
aV/nfs-7/userdata/dataTuple/kludge/Run2016F_JetHT_MINIAOD_03Feb2017-v1/merged/V08-00-18/merged_ntuple_52.root
p147
aV/nfs-7/userdata/dataTuple/kludge/Run2016F_JetHT_MINIAOD_03Feb2017-v1/merged/V08-00-18/merged_ntuple_53.root
p148
aV/nfs-7/userdata/dataTuple/kludge/Run2016F_JetHT_MINIAOD_03Feb2017-v1/merged/V08-00-18/merged_ntuple_54.root
p149
aV/nfs-7/userdata/dataTuple/kludge/Run2016F_JetHT_MINIAOD_03Feb2017-v1/merged/V08-00-18/merged_ntuple_55.root
p150
aV/nfs-7/userdata/dataTuple/kludge/Run2016F_JetHT_MINIAOD_03Feb2017-v1/merged/V08-00-18/merged_ntuple_56.root
p151
aV/nfs-7/userdata/dataTuple/kludge/Run2016F_JetHT_MINIAOD_03Feb2017-v1/merged/V08-00-18/merged_ntuple_57.root
p152
aV/nfs-7/userdata/dataTuple/kludge/Run2016F_JetHT_MINIAOD_03Feb2017-v1/merged/V08-00-18/merged_ntuple_58.root
p153
aV/nfs-7/userdata/dataTuple/kludge/Run2016F_JetHT_MINIAOD_03Feb2017-v1/merged/V08-00-18/merged_ntuple_59.root
p154
aV/nfs-7/userdata/dataTuple/kludge/Run2016F_JetHT_MINIAOD_03Feb2017-v1/merged/V08-00-18/merged_ntuple_60.root
p155
aV/nfs-7/userdata/dataTuple/kludge/Run2016F_JetHT_MINIAOD_03Feb2017-v1/merged/V08-00-18/merged_ntuple_61.root
p156
aV/nfs-7/userdata/dataTuple/kludge/Run2016F_JetHT_MINIAOD_03Feb2017-v1/merged/V08-00-18/merged_ntuple_62.root
p157
aV/nfs-7/userdata/dataTuple/kludge/Run2016F_JetHT_MINIAOD_03Feb2017-v1/merged/V08-00-18/merged_ntuple_63.root
p158
aV/nfs-7/userdata/dataTuple/kludge/Run2016F_JetHT_MINIAOD_03Feb2017-v1/merged/V08-00-18/merged_ntuple_64.root
p159
aV/nfs-7/userdata/dataTuple/kludge/Run2016F_JetHT_MINIAOD_03Feb2017-v1/merged/V08-00-18/merged_ntuple_65.root
p160
aV/nfs-7/userdata/dataTuple/kludge/Run2016F_JetHT_MINIAOD_03Feb2017-v1/merged/V08-00-18/merged_ntuple_66.root
p161
aV/nfs-7/userdata/dataTuple/kludge/Run2016F_JetHT_MINIAOD_03Feb2017-v1/merged/V08-00-18/merged_ntuple_67.root
p162
aV/nfs-7/userdata/dataTuple/kludge/Run2016F_JetHT_MINIAOD_03Feb2017-v1/merged/V08-00-18/merged_ntuple_68.root
p163
aV/nfs-7/userdata/dataTuple/kludge/Run2016F_JetHT_MINIAOD_03Feb2017-v1/merged/V08-00-18/merged_ntuple_69.root
p164
aV/nfs-7/userdata/dataTuple/kludge/Run2016F_JetHT_MINIAOD_03Feb2017-v1/merged/V08-00-18/merged_ntuple_70.root
p165
aV/nfs-7/userdata/dataTuple/kludge/Run2016F_JetHT_MINIAOD_03Feb2017-v1/merged/V08-00-18/merged_ntuple_71.root
p166
aV/nfs-7/userdata/dataTuple/kludge/Run2016F_JetHT_MINIAOD_03Feb2017-v1/merged/V08-00-18/merged_ntuple_72.root
p167
aV/nfs-7/userdata/dataTuple/kludge/Run2016F_JetHT_MINIAOD_03Feb2017-v1/merged/V08-00-18/merged_ntuple_73.root
p168
aV/nfs-7/userdata/dataTuple/kludge/Run2016F_JetHT_MINIAOD_03Feb2017-v1/merged/V08-00-18/merged_ntuple_74.root
p169
aV/nfs-7/userdata/dataTuple/kludge/Run2016F_JetHT_MINIAOD_03Feb2017-v1/merged/V08-00-18/merged_ntuple_75.root
p170
aV/nfs-7/userdata/dataTuple/kludge/Run2016F_JetHT_MINIAOD_03Feb2017-v1/merged/V08-00-18/merged_ntuple_76.root
p171
aV/nfs-7/userdata/dataTuple/kludge/Run2016F_JetHT_MINIAOD_03Feb2017-v1/merged/V08-00-18/merged_ntuple_77.root
p172
aV/nfs-7/userdata/dataTuple/kludge/Run2016F_JetHT_MINIAOD_03Feb2017-v1/merged/V08-00-18/merged_ntuple_78.root
p173
aV/nfs-7/userdata/dataTuple/kludge/Run2016F_JetHT_MINIAOD_03Feb2017-v1/merged/V08-00-18/merged_ntuple_79.root
p174
aV/nfs-7/userdata/dataTuple/kludge/Run2016F_JetHT_MINIAOD_03Feb2017-v1/merged/V08-00-18/merged_ntuple_80.root
p175
aV/nfs-7/userdata/dataTuple/kludge/Run2016F_JetHT_MINIAOD_03Feb2017-v1/merged/V08-00-18/merged_ntuple_81.root
p176
aV/nfs-7/userdata/dataTuple/kludge/Run2016F_JetHT_MINIAOD_03Feb2017-v1/merged/V08-00-18/merged_ntuple_82.root
p177
aV/nfs-7/userdata/dataTuple/kludge/Run2016F_JetHT_MINIAOD_03Feb2017-v1/merged/V08-00-18/merged_ntuple_83.root
p178
aV/nfs-7/userdata/dataTuple/kludge/Run2016F_JetHT_MINIAOD_03Feb2017-v1/merged/V08-00-18/merged_ntuple_84.root
p179
aV/nfs-7/userdata/dataTuple/kludge/Run2016F_JetHT_MINIAOD_03Feb2017-v1/merged/V08-00-18/merged_ntuple_85.root
p180
aV/nfs-7/userdata/dataTuple/kludge/Run2016F_JetHT_MINIAOD_03Feb2017-v1/merged/V08-00-18/merged_ntuple_86.root
p181
aV/nfs-7/userdata/dataTuple/kludge/Run2016F_JetHT_MINIAOD_03Feb2017-v1/merged/V08-00-18/merged_ntuple_87.root
p182
aV/nfs-7/userdata/dataTuple/kludge/Run2016F_JetHT_MINIAOD_03Feb2017-v1/merged/V08-00-18/merged_ntuple_88.root
p183
aV/nfs-7/userdata/dataTuple/kludge/Run2016F_JetHT_MINIAOD_03Feb2017-v1/merged/V08-00-18/merged_ntuple_89.root
p184
aV/nfs-7/userdata/dataTuple/kludge/Run2016F_JetHT_MINIAOD_03Feb2017-v1/merged/V08-00-18/merged_ntuple_90.root
p185
aV/nfs-7/userdata/dataTuple/kludge/Run2016F_JetHT_MINIAOD_03Feb2017-v1/merged/V08-00-18/merged_ntuple_91.root
p186
aV/nfs-7/userdata/dataTuple/kludge/Run2016F_JetHT_MINIAOD_03Feb2017-v1/merged/V08-00-18/merged_ntuple_92.root
p187
aV/nfs-7/userdata/dataTuple/kludge/Run2016F_JetHT_MINIAOD_03Feb2017-v1/merged/V08-00-18/merged_ntuple_93.root
p188
aV/nfs-7/userdata/dataTuple/kludge/Run2016F_JetHT_MINIAOD_03Feb2017-v1/merged/V08-00-18/merged_ntuple_94.root
p189
aV/nfs-7/userdata/dataTuple/kludge/Run2016F_JetHT_MINIAOD_03Feb2017-v1/merged/V08-00-18/merged_ntuple_95.root
p190
aV/nfs-7/userdata/dataTuple/kludge/Run2016F_JetHT_MINIAOD_03Feb2017-v1/merged/V08-00-18/merged_ntuple_96.root
p191
aV/nfs-7/userdata/dataTuple/kludge/Run2016F_JetHT_MINIAOD_03Feb2017-v1/merged/V08-00-18/merged_ntuple_97.root
p192
aV/nfs-7/userdata/dataTuple/kludge/Run2016F_JetHT_MINIAOD_03Feb2017-v1/merged/V08-00-18/merged_ntuple_98.root
p193
aV/nfs-7/userdata/dataTuple/kludge/Run2016F_JetHT_MINIAOD_03Feb2017-v1/merged/V08-00-18/merged_ntuple_99.root
p194
aV/nfs-7/userdata/dataTuple/kludge/Run2016F_JetHT_MINIAOD_03Feb2017-v1/merged/V08-00-18/merged_ntuple_100.root
p195
aV/nfs-7/userdata/dataTuple/kludge/Run2016F_JetHT_MINIAOD_03Feb2017-v1/merged/V08-00-18/merged_ntuple_101.root
p196
aV/nfs-7/userdata/dataTuple/kludge/Run2016F_JetHT_MINIAOD_03Feb2017-v1/merged/V08-00-18/merged_ntuple_102.root
p197
aV/nfs-7/userdata/dataTuple/kludge/Run2016F_JetHT_MINIAOD_03Feb2017-v1/merged/V08-00-18/merged_ntuple_103.root
p198
aV/nfs-7/userdata/dataTuple/kludge/Run2016F_JetHT_MINIAOD_03Feb2017-v1/merged/V08-00-18/merged_ntuple_104.root
p199
aV/nfs-7/userdata/dataTuple/kludge/Run2016F_JetHT_MINIAOD_03Feb2017-v1/merged/V08-00-18/merged_ntuple_105.root
p200
aV/nfs-7/userdata/dataTuple/kludge/Run2016F_JetHT_MINIAOD_03Feb2017-v1/merged/V08-00-18/merged_ntuple_106.root
p201
aV/nfs-7/userdata/dataTuple/kludge/Run2016F_JetHT_MINIAOD_03Feb2017-v1/merged/V08-00-18/merged_ntuple_107.root
p202
aV/nfs-7/userdata/dataTuple/kludge/Run2016F_JetHT_MINIAOD_03Feb2017-v1/merged/V08-00-18/merged_ntuple_108.root
p203
aV/nfs-7/userdata/dataTuple/kludge/Run2016F_JetHT_MINIAOD_03Feb2017-v1/merged/V08-00-18/merged_ntuple_109.root
p204
aV/nfs-7/userdata/dataTuple/kludge/Run2016F_JetHT_MINIAOD_03Feb2017-v1/merged/V08-00-18/merged_ntuple_110.root
p205
aV/nfs-7/userdata/dataTuple/kludge/Run2016F_JetHT_MINIAOD_03Feb2017-v1/merged/V08-00-18/merged_ntuple_111.root
p206
aV/nfs-7/userdata/dataTuple/kludge/Run2016F_JetHT_MINIAOD_03Feb2017-v1/merged/V08-00-18/merged_ntuple_112.root
p207
aV/nfs-7/userdata/dataTuple/kludge/Run2016F_JetHT_MINIAOD_03Feb2017-v1/merged/V08-00-18/merged_ntuple_113.root
p208
aV/nfs-7/userdata/dataTuple/kludge/Run2016F_JetHT_MINIAOD_03Feb2017-v1/merged/V08-00-18/merged_ntuple_114.root
p209
aV/nfs-7/userdata/dataTuple/kludge/Run2016F_JetHT_MINIAOD_03Feb2017-v1/merged/V08-00-18/merged_ntuple_115.root
p210
aV/nfs-7/userdata/dataTuple/kludge/Run2016F_JetHT_MINIAOD_03Feb2017-v1/merged/V08-00-18/merged_ntuple_116.root
p211
aV/nfs-7/userdata/dataTuple/kludge/Run2016F_JetHT_MINIAOD_03Feb2017-v1/merged/V08-00-18/merged_ntuple_117.root
p212
aV/nfs-7/userdata/dataTuple/kludge/Run2016F_JetHT_MINIAOD_03Feb2017-v1/merged/V08-00-18/merged_ntuple_118.root
p213
aV/nfs-7/userdata/dataTuple/kludge/Run2016F_JetHT_MINIAOD_03Feb2017-v1/merged/V08-00-18/merged_ntuple_119.root
p214
aV/nfs-7/userdata/dataTuple/kludge/Run2016F_JetHT_MINIAOD_03Feb2017-v1/merged/V08-00-18/merged_ntuple_120.root
p215
aV/nfs-7/userdata/dataTuple/kludge/Run2016F_JetHT_MINIAOD_03Feb2017-v1/merged/V08-00-18/merged_ntuple_121.root
p216
aV/nfs-7/userdata/dataTuple/kludge/Run2016F_JetHT_MINIAOD_03Feb2017-v1/merged/V08-00-18/merged_ntuple_122.root
p217
aV/nfs-7/userdata/dataTuple/kludge/Run2016F_JetHT_MINIAOD_03Feb2017-v1/merged/V08-00-18/merged_ntuple_123.root
p218
aV/nfs-7/userdata/dataTuple/kludge/Run2016F_JetHT_MINIAOD_03Feb2017-v1/merged/V08-00-18/merged_ntuple_124.root
p219
aV/nfs-7/userdata/dataTuple/kludge/Run2016F_JetHT_MINIAOD_03Feb2017-v1/merged/V08-00-18/merged_ntuple_125.root
p220
aV/nfs-7/userdata/dataTuple/kludge/Run2016F_JetHT_MINIAOD_03Feb2017-v1/merged/V08-00-18/merged_ntuple_126.root
p221
aV/nfs-7/userdata/dataTuple/kludge/Run2016F_JetHT_MINIAOD_03Feb2017-v1/merged/V08-00-18/merged_ntuple_127.root
p222
aV/nfs-7/userdata/dataTuple/kludge/Run2016F_JetHT_MINIAOD_03Feb2017-v1/merged/V08-00-18/merged_ntuple_128.root
p223
aV/nfs-7/userdata/dataTuple/kludge/Run2016F_JetHT_MINIAOD_03Feb2017-v1/merged/V08-00-18/merged_ntuple_129.root
p224
aV/nfs-7/userdata/dataTuple/kludge/Run2016F_JetHT_MINIAOD_03Feb2017-v1/merged/V08-00-18/merged_ntuple_130.root
p225
aV/nfs-7/userdata/dataTuple/kludge/Run2016F_JetHT_MINIAOD_03Feb2017-v1/merged/V08-00-18/merged_ntuple_131.root
p226
aV/nfs-7/userdata/dataTuple/kludge/Run2016F_JetHT_MINIAOD_03Feb2017-v1/merged/V08-00-18/merged_ntuple_132.root
p227
aV/nfs-7/userdata/dataTuple/kludge/Run2016F_JetHT_MINIAOD_03Feb2017-v1/merged/V08-00-18/merged_ntuple_133.root
p228
aV/nfs-7/userdata/dataTuple/kludge/Run2016F_JetHT_MINIAOD_03Feb2017-v1/merged/V08-00-18/merged_ntuple_134.root
p229
aV/nfs-7/userdata/dataTuple/kludge/Run2016F_JetHT_MINIAOD_03Feb2017-v1/merged/V08-00-18/merged_ntuple_135.root
p230
aV/nfs-7/userdata/dataTuple/kludge/Run2016F_JetHT_MINIAOD_03Feb2017-v1/merged/V08-00-18/merged_ntuple_136.root
p231
aV/nfs-7/userdata/dataTuple/kludge/Run2016F_JetHT_MINIAOD_03Feb2017-v1/merged/V08-00-18/merged_ntuple_137.root
p232
aV/nfs-7/userdata/dataTuple/kludge/Run2016F_JetHT_MINIAOD_03Feb2017-v1/merged/V08-00-18/merged_ntuple_138.root
p233
aV/nfs-7/userdata/dataTuple/kludge/Run2016F_JetHT_MINIAOD_03Feb2017-v1/merged/V08-00-18/merged_ntuple_139.root
p234
aV/nfs-7/userdata/dataTuple/kludge/Run2016F_JetHT_MINIAOD_03Feb2017-v1/merged/V08-00-18/merged_ntuple_140.root
p235
aV/nfs-7/userdata/dataTuple/kludge/Run2016F_JetHT_MINIAOD_03Feb2017-v1/merged/V08-00-18/merged_ntuple_141.root
p236
aV/nfs-7/userdata/dataTuple/kludge/Run2016F_JetHT_MINIAOD_03Feb2017-v1/merged/V08-00-18/merged_ntuple_142.root
p237
aV/nfs-7/userdata/dataTuple/kludge/Run2016F_JetHT_MINIAOD_03Feb2017-v1/merged/V08-00-18/merged_ntuple_143.root
p238
aV/nfs-7/userdata/dataTuple/kludge/Run2016F_JetHT_MINIAOD_03Feb2017-v1/merged/V08-00-18/merged_ntuple_144.root
p239
aV/nfs-7/userdata/dataTuple/kludge/Run2016F_JetHT_MINIAOD_03Feb2017-v1/merged/V08-00-18/merged_ntuple_145.root
p240
aV/nfs-7/userdata/dataTuple/kludge/Run2016F_JetHT_MINIAOD_03Feb2017-v1/merged/V08-00-18/merged_ntuple_146.root
p241
aV/nfs-7/userdata/dataTuple/kludge/Run2016F_JetHT_MINIAOD_03Feb2017-v1/merged/V08-00-18/merged_ntuple_147.root
p242
aV/nfs-7/userdata/dataTuple/kludge/Run2016F_JetHT_MINIAOD_03Feb2017-v1/merged/V08-00-18/merged_ntuple_148.root
p243
aV/nfs-7/userdata/dataTuple/kludge/Run2016F_JetHT_MINIAOD_03Feb2017-v1/merged/V08-00-18/merged_ntuple_149.root
p244
aV/nfs-7/userdata/dataTuple/kludge/Run2016F_JetHT_MINIAOD_03Feb2017-v1/merged/V08-00-18/merged_ntuple_150.root
p245
aV/nfs-7/userdata/dataTuple/kludge/Run2016F_JetHT_MINIAOD_03Feb2017-v1/merged/V08-00-18/merged_ntuple_151.root
p246
aV/nfs-7/userdata/dataTuple/kludge/Run2016F_JetHT_MINIAOD_03Feb2017-v1/merged/V08-00-18/merged_ntuple_152.root
p247
aV/nfs-7/userdata/dataTuple/kludge/Run2016F_JetHT_MINIAOD_03Feb2017-v1/merged/V08-00-18/merged_ntuple_153.root
p248
aV/nfs-7/userdata/dataTuple/kludge/Run2016F_JetHT_MINIAOD_03Feb2017-v1/merged/V08-00-18/merged_ntuple_154.root
p249
aV/nfs-7/userdata/dataTuple/kludge/Run2016F_JetHT_MINIAOD_03Feb2017-v1/merged/V08-00-18/merged_ntuple_155.root
p250
aV/nfs-7/userdata/dataTuple/kludge/Run2016F_JetHT_MINIAOD_03Feb2017-v1/merged/V08-00-18/merged_ntuple_156.root
p251
aV/nfs-7/userdata/dataTuple/kludge/Run2016F_JetHT_MINIAOD_03Feb2017-v1/merged/V08-00-18/merged_ntuple_157.root
p252
aV/nfs-7/userdata/dataTuple/kludge/Run2016F_JetHT_MINIAOD_03Feb2017-v1/merged/V08-00-18/merged_ntuple_158.root
p253
aV/nfs-7/userdata/dataTuple/kludge/Run2016F_JetHT_MINIAOD_03Feb2017-v1/merged/V08-00-18/merged_ntuple_159.root
p254
aV/nfs-7/userdata/dataTuple/kludge/Run2016F_JetHT_MINIAOD_03Feb2017-v1/merged/V08-00-18/merged_ntuple_160.root
p255
aV/nfs-7/userdata/dataTuple/kludge/Run2016F_JetHT_MINIAOD_03Feb2017-v1/merged/V08-00-18/merged_ntuple_161.root
p256
aV/nfs-7/userdata/dataTuple/kludge/Run2016F_JetHT_MINIAOD_03Feb2017-v1/merged/V08-00-18/merged_ntuple_162.root
p257
aV/nfs-7/userdata/dataTuple/kludge/Run2016F_JetHT_MINIAOD_03Feb2017-v1/merged/V08-00-18/merged_ntuple_163.root
p258
aV/nfs-7/userdata/dataTuple/kludge/Run2016F_JetHT_MINIAOD_03Feb2017-v1/merged/V08-00-18/merged_ntuple_164.root
p259
aV/nfs-7/userdata/dataTuple/kludge/Run2016F_JetHT_MINIAOD_03Feb2017-v1/merged/V08-00-18/merged_ntuple_165.root
p260
aV/nfs-7/userdata/dataTuple/kludge/Run2016F_JetHT_MINIAOD_03Feb2017-v1/merged/V08-00-18/merged_ntuple_166.root
p261
aV/nfs-7/userdata/dataTuple/kludge/Run2016F_JetHT_MINIAOD_03Feb2017-v1/merged/V08-00-18/merged_ntuple_167.root
p262
aV/nfs-7/userdata/dataTuple/kludge/Run2016F_JetHT_MINIAOD_03Feb2017-v1/merged/V08-00-18/merged_ntuple_168.root
p263
aV/nfs-7/userdata/dataTuple/kludge/Run2016F_JetHT_MINIAOD_03Feb2017-v1/merged/V08-00-18/merged_ntuple_169.root
p264
aV/nfs-7/userdata/dataTuple/kludge/Run2016F_JetHT_MINIAOD_03Feb2017-v1/merged/V08-00-18/merged_ntuple_170.root
p265
aV/nfs-7/userdata/dataTuple/kludge/Run2016F_JetHT_MINIAOD_03Feb2017-v1/merged/V08-00-18/merged_ntuple_171.root
p266
aV/nfs-7/userdata/dataTuple/kludge/Run2016F_JetHT_MINIAOD_03Feb2017-v1/merged/V08-00-18/merged_ntuple_172.root
p267
aV/nfs-7/userdata/dataTuple/kludge/Run2016F_JetHT_MINIAOD_03Feb2017-v1/merged/V08-00-18/merged_ntuple_173.root
p268
aV/nfs-7/userdata/dataTuple/kludge/Run2016F_JetHT_MINIAOD_03Feb2017-v1/merged/V08-00-18/merged_ntuple_174.root
p269
aV/nfs-7/userdata/dataTuple/kludge/Run2016F_JetHT_MINIAOD_03Feb2017-v1/merged/V08-00-18/merged_ntuple_175.root
p270
aV/nfs-7/userdata/dataTuple/kludge/Run2016F_JetHT_MINIAOD_03Feb2017-v1/merged/V08-00-18/merged_ntuple_176.root
p271
aV/nfs-7/userdata/dataTuple/kludge/Run2016F_JetHT_MINIAOD_03Feb2017-v1/merged/V08-00-18/merged_ntuple_177.root
p272
aV/nfs-7/userdata/dataTuple/kludge/Run2016F_JetHT_MINIAOD_03Feb2017-v1/merged/V08-00-18/merged_ntuple_178.root
p273
aV/nfs-7/userdata/dataTuple/kludge/Run2016F_JetHT_MINIAOD_03Feb2017-v1/merged/V08-00-18/merged_ntuple_179.root
p274
aV/nfs-7/userdata/dataTuple/kludge/Run2016F_JetHT_MINIAOD_03Feb2017-v1/merged/V08-00-18/merged_ntuple_180.root
p275
aV/nfs-7/userdata/dataTuple/kludge/Run2016F_JetHT_MINIAOD_03Feb2017-v1/merged/V08-00-18/merged_ntuple_181.root
p276
aV/nfs-7/userdata/dataTuple/kludge/Run2016F_JetHT_MINIAOD_03Feb2017-v1/merged/V08-00-18/merged_ntuple_182.root
p277
aV/nfs-7/userdata/dataTuple/kludge/Run2016F_JetHT_MINIAOD_03Feb2017-v1/merged/V08-00-18/merged_ntuple_183.root
p278
aV/nfs-7/userdata/dataTuple/kludge/Run2016F_JetHT_MINIAOD_03Feb2017-v1/merged/V08-00-18/merged_ntuple_184.root
p279
aV/nfs-7/userdata/dataTuple/kludge/Run2016F_JetHT_MINIAOD_03Feb2017-v1/merged/V08-00-18/merged_ntuple_185.root
p280
aV/nfs-7/userdata/dataTuple/kludge/Run2016F_JetHT_MINIAOD_03Feb2017-v1/merged/V08-00-18/merged_ntuple_186.root
p281
aV/nfs-7/userdata/dataTuple/kludge/Run2016F_JetHT_MINIAOD_03Feb2017-v1/merged/V08-00-18/merged_ntuple_187.root
p282
aV/nfs-7/userdata/dataTuple/kludge/Run2016F_JetHT_MINIAOD_03Feb2017-v1/merged/V08-00-18/merged_ntuple_188.root
p283
aV/nfs-7/userdata/dataTuple/kludge/Run2016F_JetHT_MINIAOD_03Feb2017-v1/merged/V08-00-18/merged_ntuple_189.root
p284
aV/nfs-7/userdata/dataTuple/kludge/Run2016F_JetHT_MINIAOD_03Feb2017-v1/merged/V08-00-18/merged_ntuple_190.root
p285
aV/nfs-7/userdata/dataTuple/kludge/Run2016F_JetHT_MINIAOD_03Feb2017-v1/merged/V08-00-18/merged_ntuple_191.root
p286
aV/nfs-7/userdata/dataTuple/kludge/Run2016F_JetHT_MINIAOD_03Feb2017-v1/merged/V08-00-18/merged_ntuple_192.root
p287
aV/nfs-7/userdata/dataTuple/kludge/Run2016F_JetHT_MINIAOD_03Feb2017-v1/merged/V08-00-18/merged_ntuple_193.root
p288
aV/nfs-7/userdata/dataTuple/kludge/Run2016F_JetHT_MINIAOD_03Feb2017-v1/merged/V08-00-18/merged_ntuple_194.root
p289
aV/nfs-7/userdata/dataTuple/kludge/Run2016F_JetHT_MINIAOD_03Feb2017-v1/merged/V08-00-18/merged_ntuple_195.root
p290
aV/nfs-7/userdata/dataTuple/kludge/Run2016F_JetHT_MINIAOD_03Feb2017-v1/merged/V08-00-18/merged_ntuple_196.root
p291
aV/nfs-7/userdata/dataTuple/kludge/Run2016F_JetHT_MINIAOD_03Feb2017-v1/merged/V08-00-18/merged_ntuple_197.root
p292
aV/nfs-7/userdata/dataTuple/kludge/Run2016F_JetHT_MINIAOD_03Feb2017-v1/merged/V08-00-18/merged_ntuple_198.root
p293
aV/nfs-7/userdata/dataTuple/kludge/Run2016F_JetHT_MINIAOD_03Feb2017-v1/merged/V08-00-18/merged_ntuple_199.root
p294
aV/nfs-7/userdata/dataTuple/kludge/Run2016F_JetHT_MINIAOD_03Feb2017-v1/merged/V08-00-18/merged_ntuple_200.root
p295
aV/nfs-7/userdata/dataTuple/kludge/Run2016F_JetHT_MINIAOD_03Feb2017-v1/merged/V08-00-18/merged_ntuple_201.root
p296
aV/nfs-7/userdata/dataTuple/kludge/Run2016F_JetHT_MINIAOD_03Feb2017-v1/merged/V08-00-18/merged_ntuple_202.root
p297
aV/nfs-7/userdata/dataTuple/kludge/Run2016F_JetHT_MINIAOD_03Feb2017-v1/merged/V08-00-18/merged_ntuple_203.root
p298
aV/nfs-7/userdata/dataTuple/kludge/Run2016F_JetHT_MINIAOD_03Feb2017-v1/merged/V08-00-18/merged_ntuple_204.root
p299
aV/nfs-7/userdata/dataTuple/kludge/Run2016F_JetHT_MINIAOD_03Feb2017-v1/merged/V08-00-18/merged_ntuple_205.root
p300
aV/nfs-7/userdata/dataTuple/kludge/Run2016F_JetHT_MINIAOD_03Feb2017-v1/merged/V08-00-18/merged_ntuple_206.root
p301
aV/nfs-7/userdata/dataTuple/kludge/Run2016F_JetHT_MINIAOD_03Feb2017-v1/merged/V08-00-18/merged_ntuple_207.root
p302
aV/nfs-7/userdata/dataTuple/kludge/Run2016F_JetHT_MINIAOD_03Feb2017-v1/merged/V08-00-18/merged_ntuple_208.root
p303
aV/nfs-7/userdata/dataTuple/kludge/Run2016F_JetHT_MINIAOD_03Feb2017-v1/merged/V08-00-18/merged_ntuple_209.root
p304
aV/nfs-7/userdata/dataTuple/kludge/Run2016F_JetHT_MINIAOD_03Feb2017-v1/merged/V08-00-18/merged_ntuple_210.root
p305
aV/nfs-7/userdata/dataTuple/kludge/Run2016F_JetHT_MINIAOD_03Feb2017-v1/merged/V08-00-18/merged_ntuple_211.root
p306
aV/nfs-7/userdata/dataTuple/kludge/Run2016F_JetHT_MINIAOD_03Feb2017-v1/merged/V08-00-18/merged_ntuple_212.root
p307
aV/nfs-7/userdata/dataTuple/kludge/Run2016F_JetHT_MINIAOD_03Feb2017-v1/merged/V08-00-18/merged_ntuple_213.root
p308
aV/nfs-7/userdata/dataTuple/kludge/Run2016F_JetHT_MINIAOD_03Feb2017-v1/merged/V08-00-18/merged_ntuple_214.root
p309
aV/nfs-7/userdata/dataTuple/kludge/Run2016F_JetHT_MINIAOD_03Feb2017-v1/merged/V08-00-18/merged_ntuple_215.root
p310
aV/nfs-7/userdata/dataTuple/kludge/Run2016F_JetHT_MINIAOD_03Feb2017-v1/merged/V08-00-18/merged_ntuple_216.root
p311
aV/nfs-7/userdata/dataTuple/kludge/Run2016F_JetHT_MINIAOD_03Feb2017-v1/merged/V08-00-18/merged_ntuple_217.root
p312
aV/nfs-7/userdata/dataTuple/kludge/Run2016F_JetHT_MINIAOD_03Feb2017-v1/merged/V08-00-18/merged_ntuple_218.root
p313
aV/nfs-7/userdata/dataTuple/kludge/Run2016F_JetHT_MINIAOD_03Feb2017-v1/merged/V08-00-18/merged_ntuple_219.root
p314
aV/nfs-7/userdata/dataTuple/kludge/Run2016F_JetHT_MINIAOD_03Feb2017-v1/merged/V08-00-18/merged_ntuple_220.root
p315
aV/nfs-7/userdata/dataTuple/kludge/Run2016F_JetHT_MINIAOD_03Feb2017-v1/merged/V08-00-18/merged_ntuple_221.root
p316
aV/nfs-7/userdata/dataTuple/kludge/Run2016F_JetHT_MINIAOD_03Feb2017-v1/merged/V08-00-18/merged_ntuple_222.root
p317
aV/nfs-7/userdata/dataTuple/kludge/Run2016F_JetHT_MINIAOD_03Feb2017-v1/merged/V08-00-18/merged_ntuple_223.root
p318
aV/nfs-7/userdata/dataTuple/kludge/Run2016F_JetHT_MINIAOD_03Feb2017-v1/merged/V08-00-18/merged_ntuple_224.root
p319
aV/nfs-7/userdata/dataTuple/kludge/Run2016F_JetHT_MINIAOD_03Feb2017-v1/merged/V08-00-18/merged_ntuple_225.root
p320
aV/nfs-7/userdata/dataTuple/kludge/Run2016F_JetHT_MINIAOD_03Feb2017-v1/merged/V08-00-18/merged_ntuple_226.root
p321
aV/nfs-7/userdata/dataTuple/kludge/Run2016F_JetHT_MINIAOD_03Feb2017-v1/merged/V08-00-18/merged_ntuple_227.root
p322
aV/nfs-7/userdata/dataTuple/kludge/Run2016F_JetHT_MINIAOD_03Feb2017-v1/merged/V08-00-18/merged_ntuple_228.root
p323
aV/nfs-7/userdata/dataTuple/kludge/Run2016F_JetHT_MINIAOD_03Feb2017-v1/merged/V08-00-18/merged_ntuple_229.root
p324
aV/nfs-7/userdata/dataTuple/kludge/Run2016F_JetHT_MINIAOD_03Feb2017-v1/merged/V08-00-18/merged_ntuple_230.root
p325
aV/nfs-7/userdata/dataTuple/kludge/Run2016F_JetHT_MINIAOD_03Feb2017-v1/merged/V08-00-18/merged_ntuple_231.root
p326
aV/nfs-7/userdata/dataTuple/kludge/Run2016F_JetHT_MINIAOD_03Feb2017-v1/merged/V08-00-18/merged_ntuple_232.root
p327
aV/nfs-7/userdata/dataTuple/kludge/Run2016F_JetHT_MINIAOD_03Feb2017-v1/merged/V08-00-18/merged_ntuple_233.root
p328
aV/nfs-7/userdata/dataTuple/kludge/Run2016F_JetHT_MINIAOD_03Feb2017-v1/merged/V08-00-18/merged_ntuple_234.root
p329
aV/nfs-7/userdata/dataTuple/kludge/Run2016F_JetHT_MINIAOD_03Feb2017-v1/merged/V08-00-18/merged_ntuple_235.root
p330
aV/nfs-7/userdata/dataTuple/kludge/Run2016F_JetHT_MINIAOD_03Feb2017-v1/merged/V08-00-18/merged_ntuple_236.root
p331
aV/nfs-7/userdata/dataTuple/kludge/Run2016F_JetHT_MINIAOD_03Feb2017-v1/merged/V08-00-18/merged_ntuple_237.root
p332
aV/nfs-7/userdata/dataTuple/kludge/Run2016F_JetHT_MINIAOD_03Feb2017-v1/merged/V08-00-18/merged_ntuple_238.root
p333
aV/nfs-7/userdata/dataTuple/kludge/Run2016F_JetHT_MINIAOD_03Feb2017-v1/merged/V08-00-18/merged_ntuple_239.root
p334
aV/nfs-7/userdata/dataTuple/kludge/Run2016F_JetHT_MINIAOD_03Feb2017-v1/merged/V08-00-18/merged_ntuple_240.root
p335
aV/nfs-7/userdata/dataTuple/kludge/Run2016F_JetHT_MINIAOD_03Feb2017-v1/merged/V08-00-18/merged_ntuple_241.root
p336
aV/nfs-7/userdata/dataTuple/kludge/Run2016F_JetHT_MINIAOD_03Feb2017-v1/merged/V08-00-18/merged_ntuple_242.root
p337
aV/nfs-7/userdata/dataTuple/kludge/Run2016F_JetHT_MINIAOD_03Feb2017-v1/merged/V08-00-18/merged_ntuple_243.root
p338
aV/nfs-7/userdata/dataTuple/kludge/Run2016F_JetHT_MINIAOD_03Feb2017-v1/merged/V08-00-18/merged_ntuple_244.root
p339
aV/nfs-7/userdata/dataTuple/kludge/Run2016F_JetHT_MINIAOD_03Feb2017-v1/merged/V08-00-18/merged_ntuple_245.root
p340
aV/nfs-7/userdata/dataTuple/kludge/Run2016F_JetHT_MINIAOD_03Feb2017-v1/merged/V08-00-18/merged_ntuple_246.root
p341
aV/nfs-7/userdata/dataTuple/kludge/Run2016F_JetHT_MINIAOD_03Feb2017-v1/merged/V08-00-18/merged_ntuple_247.root
p342
aV/nfs-7/userdata/dataTuple/kludge/Run2016F_JetHT_MINIAOD_03Feb2017-v1/merged/V08-00-18/merged_ntuple_248.root
p343
aV/nfs-7/userdata/dataTuple/kludge/Run2016F_JetHT_MINIAOD_03Feb2017-v1/merged/V08-00-18/merged_ntuple_249.root
p344
aV/nfs-7/userdata/dataTuple/kludge/Run2016F_JetHT_MINIAOD_03Feb2017-v1/merged/V08-00-18/merged_ntuple_250.root
p345
aV/nfs-7/userdata/dataTuple/kludge/Run2016F_JetHT_MINIAOD_03Feb2017-v1/merged/V08-00-18/merged_ntuple_251.root
p346
aV/nfs-7/userdata/dataTuple/kludge/Run2016F_JetHT_MINIAOD_03Feb2017-v1/merged/V08-00-18/merged_ntuple_252.root
p347
aV/nfs-7/userdata/dataTuple/kludge/Run2016F_JetHT_MINIAOD_03Feb2017-v1/merged/V08-00-18/merged_ntuple_253.root
p348
aV/nfs-7/userdata/dataTuple/kludge/Run2016F_JetHT_MINIAOD_03Feb2017-v1/merged/V08-00-18/merged_ntuple_254.root
p349
aV/nfs-7/userdata/dataTuple/kludge/Run2016F_JetHT_MINIAOD_03Feb2017-v1/merged/V08-00-18/merged_ntuple_255.root
p350
aV/nfs-7/userdata/dataTuple/kludge/Run2016F_JetHT_MINIAOD_03Feb2017-v1/merged/V08-00-18/merged_ntuple_256.root
p351
aV/nfs-7/userdata/dataTuple/kludge/Run2016F_JetHT_MINIAOD_03Feb2017-v1/merged/V08-00-18/merged_ntuple_257.root
p352
aV/nfs-7/userdata/dataTuple/kludge/Run2016F_JetHT_MINIAOD_03Feb2017-v1/merged/V08-00-18/merged_ntuple_258.root
p353
aV/nfs-7/userdata/dataTuple/kludge/Run2016F_JetHT_MINIAOD_03Feb2017-v1/merged/V08-00-18/merged_ntuple_259.root
p354
aV/nfs-7/userdata/dataTuple/kludge/Run2016F_JetHT_MINIAOD_03Feb2017-v1/merged/V08-00-18/merged_ntuple_260.root
p355
aV/nfs-7/userdata/dataTuple/kludge/Run2016F_JetHT_MINIAOD_03Feb2017-v1/merged/V08-00-18/merged_ntuple_261.root
p356
aV/nfs-7/userdata/dataTuple/kludge/Run2016F_JetHT_MINIAOD_03Feb2017-v1/merged/V08-00-18/merged_ntuple_262.root
p357
aV/nfs-7/userdata/dataTuple/kludge/Run2016F_JetHT_MINIAOD_03Feb2017-v1/merged/V08-00-18/merged_ntuple_263.root
p358
aV/nfs-7/userdata/dataTuple/kludge/Run2016F_JetHT_MINIAOD_03Feb2017-v1/merged/V08-00-18/merged_ntuple_264.root
p359
aV/nfs-7/userdata/dataTuple/kludge/Run2016F_JetHT_MINIAOD_03Feb2017-v1/merged/V08-00-18/merged_ntuple_265.root
p360
aV/nfs-7/userdata/dataTuple/kludge/Run2016F_JetHT_MINIAOD_03Feb2017-v1/merged/V08-00-18/merged_ntuple_266.root
p361
aV/nfs-7/userdata/dataTuple/kludge/Run2016F_JetHT_MINIAOD_03Feb2017-v1/merged/V08-00-18/merged_ntuple_267.root
p362
aV/nfs-7/userdata/dataTuple/kludge/Run2016F_JetHT_MINIAOD_03Feb2017-v1/merged/V08-00-18/merged_ntuple_268.root
p363
aV/nfs-7/userdata/dataTuple/kludge/Run2016F_JetHT_MINIAOD_03Feb2017-v1/merged/V08-00-18/merged_ntuple_269.root
p364
aV/nfs-7/userdata/dataTuple/kludge/Run2016F_JetHT_MINIAOD_03Feb2017-v1/merged/V08-00-18/merged_ntuple_270.root
p365
aV/nfs-7/userdata/dataTuple/kludge/Run2016F_JetHT_MINIAOD_03Feb2017-v1/merged/V08-00-18/merged_ntuple_271.root
p366
aV/nfs-7/userdata/dataTuple/kludge/Run2016F_JetHT_MINIAOD_03Feb2017-v1/merged/V08-00-18/merged_ntuple_272.root
p367
aV/nfs-7/userdata/dataTuple/kludge/Run2016F_JetHT_MINIAOD_03Feb2017-v1/merged/V08-00-18/merged_ntuple_273.root
p368
aV/nfs-7/userdata/dataTuple/kludge/Run2016F_JetHT_MINIAOD_03Feb2017-v1/merged/V08-00-18/merged_ntuple_274.root
p369
aV/nfs-7/userdata/dataTuple/kludge/Run2016F_JetHT_MINIAOD_03Feb2017-v1/merged/V08-00-18/merged_ntuple_275.root
p370
aV/nfs-7/userdata/dataTuple/kludge/Run2016F_JetHT_MINIAOD_03Feb2017-v1/merged/V08-00-18/merged_ntuple_276.root
p371
aV/nfs-7/userdata/dataTuple/kludge/Run2016F_JetHT_MINIAOD_03Feb2017-v1/merged/V08-00-18/merged_ntuple_277.root
p372
aV/nfs-7/userdata/dataTuple/kludge/Run2016F_JetHT_MINIAOD_03Feb2017-v1/merged/V08-00-18/merged_ntuple_278.root
p373
aV/nfs-7/userdata/dataTuple/kludge/Run2016F_JetHT_MINIAOD_03Feb2017-v1/merged/V08-00-18/merged_ntuple_279.root
p374
aV/nfs-7/userdata/dataTuple/kludge/Run2016F_JetHT_MINIAOD_03Feb2017-v1/merged/V08-00-18/merged_ntuple_280.root
p375
aV/nfs-7/userdata/dataTuple/kludge/Run2016F_JetHT_MINIAOD_03Feb2017-v1/merged/V08-00-18/merged_ntuple_281.root
p376
aV/nfs-7/userdata/dataTuple/kludge/Run2016F_JetHT_MINIAOD_03Feb2017-v1/merged/V08-00-18/merged_ntuple_282.root
p377
aV/nfs-7/userdata/dataTuple/kludge/Run2016F_JetHT_MINIAOD_03Feb2017-v1/merged/V08-00-18/merged_ntuple_283.root
p378
aV/nfs-7/userdata/dataTuple/kludge/Run2016F_JetHT_MINIAOD_03Feb2017-v1/merged/V08-00-18/merged_ntuple_284.root
p379
aV/nfs-7/userdata/dataTuple/kludge/Run2016F_JetHT_MINIAOD_03Feb2017-v1/merged/V08-00-18/merged_ntuple_285.root
p380
aV/nfs-7/userdata/dataTuple/kludge/Run2016F_JetHT_MINIAOD_03Feb2017-v1/merged/V08-00-18/merged_ntuple_286.root
p381
aV/nfs-7/userdata/dataTuple/kludge/Run2016F_JetHT_MINIAOD_03Feb2017-v1/merged/V08-00-18/merged_ntuple_287.root
p382
aV/nfs-7/userdata/dataTuple/kludge/Run2016F_JetHT_MINIAOD_03Feb2017-v1/merged/V08-00-18/merged_ntuple_288.root
p383
aV/nfs-7/userdata/dataTuple/kludge/Run2016F_JetHT_MINIAOD_03Feb2017-v1/merged/V08-00-18/merged_ntuple_289.root
p384
aV/nfs-7/userdata/dataTuple/kludge/Run2016F_JetHT_MINIAOD_03Feb2017-v1/merged/V08-00-18/merged_ntuple_290.root
p385
aV/nfs-7/userdata/dataTuple/kludge/Run2016F_JetHT_MINIAOD_03Feb2017-v1/merged/V08-00-18/merged_ntuple_291.root
p386
aV/nfs-7/userdata/dataTuple/kludge/Run2016F_JetHT_MINIAOD_03Feb2017-v1/merged/V08-00-18/merged_ntuple_292.root
p387
aV/nfs-7/userdata/dataTuple/kludge/Run2016F_JetHT_MINIAOD_03Feb2017-v1/merged/V08-00-18/merged_ntuple_293.root
p388
aV/nfs-7/userdata/dataTuple/kludge/Run2016F_JetHT_MINIAOD_03Feb2017-v1/merged/V08-00-18/merged_ntuple_294.root
p389
aV/nfs-7/userdata/dataTuple/kludge/Run2016F_JetHT_MINIAOD_03Feb2017-v1/merged/V08-00-18/merged_ntuple_295.root
p390
aV/nfs-7/userdata/dataTuple/kludge/Run2016F_JetHT_MINIAOD_03Feb2017-v1/merged/V08-00-18/merged_ntuple_296.root
p391
aV/nfs-7/userdata/dataTuple/kludge/Run2016F_JetHT_MINIAOD_03Feb2017-v1/merged/V08-00-18/merged_ntuple_297.root
p392
aV/nfs-7/userdata/dataTuple/kludge/Run2016F_JetHT_MINIAOD_03Feb2017-v1/merged/V08-00-18/merged_ntuple_298.root
p393
aV/nfs-7/userdata/dataTuple/kludge/Run2016F_JetHT_MINIAOD_03Feb2017-v1/merged/V08-00-18/merged_ntuple_299.root
p394
aV/nfs-7/userdata/dataTuple/kludge/Run2016F_JetHT_MINIAOD_03Feb2017-v1/merged/V08-00-18/merged_ntuple_300.root
p395
aV/nfs-7/userdata/dataTuple/kludge/Run2016F_JetHT_MINIAOD_03Feb2017-v1/merged/V08-00-18/merged_ntuple_301.root
p396
aV/nfs-7/userdata/dataTuple/kludge/Run2016F_JetHT_MINIAOD_03Feb2017-v1/merged/V08-00-18/merged_ntuple_302.root
p397
aV/nfs-7/userdata/dataTuple/kludge/Run2016F_JetHT_MINIAOD_03Feb2017-v1/merged/V08-00-18/merged_ntuple_303.root
p398
aV/nfs-7/userdata/dataTuple/kludge/Run2016F_JetHT_MINIAOD_03Feb2017-v1/merged/V08-00-18/merged_ntuple_304.root
p399
aV/nfs-7/userdata/dataTuple/kludge/Run2016F_JetHT_MINIAOD_03Feb2017-v1/merged/V08-00-18/merged_ntuple_305.root
p400
aV/nfs-7/userdata/dataTuple/kludge/Run2016F_JetHT_MINIAOD_03Feb2017-v1/merged/V08-00-18/merged_ntuple_306.root
p401
aV/nfs-7/userdata/dataTuple/kludge/Run2016F_JetHT_MINIAOD_03Feb2017-v1/merged/V08-00-18/merged_ntuple_307.root
p402
aV/nfs-7/userdata/dataTuple/kludge/Run2016F_JetHT_MINIAOD_03Feb2017-v1/merged/V08-00-18/merged_ntuple_308.root
p403
aV/nfs-7/userdata/dataTuple/kludge/Run2016F_JetHT_MINIAOD_03Feb2017-v1/merged/V08-00-18/merged_ntuple_309.root
p404
aV/nfs-7/userdata/dataTuple/kludge/Run2016F_JetHT_MINIAOD_03Feb2017-v1/merged/V08-00-18/merged_ntuple_310.root
p405
aV/nfs-7/userdata/dataTuple/kludge/Run2016F_JetHT_MINIAOD_03Feb2017-v1/merged/V08-00-18/merged_ntuple_311.root
p406
aV/nfs-7/userdata/dataTuple/kludge/Run2016F_JetHT_MINIAOD_03Feb2017-v1/merged/V08-00-18/merged_ntuple_312.root
p407
aV/nfs-7/userdata/dataTuple/kludge/Run2016F_JetHT_MINIAOD_03Feb2017-v1/merged/V08-00-18/merged_ntuple_313.root
p408
aV/nfs-7/userdata/dataTuple/kludge/Run2016F_JetHT_MINIAOD_03Feb2017-v1/merged/V08-00-18/merged_ntuple_314.root
p409
aV/nfs-7/userdata/dataTuple/kludge/Run2016F_JetHT_MINIAOD_03Feb2017-v1/merged/V08-00-18/merged_ntuple_315.root
p410
aV/nfs-7/userdata/dataTuple/kludge/Run2016F_JetHT_MINIAOD_03Feb2017-v1/merged/V08-00-18/merged_ntuple_316.root
p411
aV/nfs-7/userdata/dataTuple/kludge/Run2016F_JetHT_MINIAOD_03Feb2017-v1/merged/V08-00-18/merged_ntuple_317.root
p412
aV/nfs-7/userdata/dataTuple/kludge/Run2016F_JetHT_MINIAOD_03Feb2017-v1/merged/V08-00-18/merged_ntuple_318.root
p413
aV/nfs-7/userdata/dataTuple/kludge/Run2016F_JetHT_MINIAOD_03Feb2017-v1/merged/V08-00-18/merged_ntuple_319.root
p414
aV/nfs-7/userdata/dataTuple/kludge/Run2016F_JetHT_MINIAOD_03Feb2017-v1/merged/V08-00-18/merged_ntuple_320.root
p415
aV/nfs-7/userdata/dataTuple/kludge/Run2016F_JetHT_MINIAOD_03Feb2017-v1/merged/V08-00-18/merged_ntuple_321.root
p416
aV/nfs-7/userdata/dataTuple/kludge/Run2016F_JetHT_MINIAOD_03Feb2017-v1/merged/V08-00-18/merged_ntuple_322.root
p417
aV/nfs-7/userdata/dataTuple/kludge/Run2016F_JetHT_MINIAOD_03Feb2017-v1/merged/V08-00-18/merged_ntuple_323.root
p418
aV/nfs-7/userdata/dataTuple/kludge/Run2016F_JetHT_MINIAOD_03Feb2017-v1/merged/V08-00-18/merged_ntuple_324.root
p419
aV/nfs-7/userdata/dataTuple/kludge/Run2016F_JetHT_MINIAOD_03Feb2017-v1/merged/V08-00-18/merged_ntuple_325.root
p420
aV/nfs-7/userdata/dataTuple/kludge/Run2016F_JetHT_MINIAOD_03Feb2017-v1/merged/V08-00-18/merged_ntuple_326.root
p421
aV/nfs-7/userdata/dataTuple/kludge/Run2016F_JetHT_MINIAOD_03Feb2017-v1/merged/V08-00-18/merged_ntuple_327.root
p422
aV/nfs-7/userdata/dataTuple/kludge/Run2016F_JetHT_MINIAOD_03Feb2017-v1/merged/V08-00-18/merged_ntuple_328.root
p423
aV/nfs-7/userdata/dataTuple/kludge/Run2016F_JetHT_MINIAOD_03Feb2017-v1/merged/V08-00-18/merged_ntuple_329.root
p424
aV/nfs-7/userdata/dataTuple/kludge/Run2016F_JetHT_MINIAOD_03Feb2017-v1/merged/V08-00-18/merged_ntuple_330.root
p425
aV/nfs-7/userdata/dataTuple/kludge/Run2016F_JetHT_MINIAOD_03Feb2017-v1/merged/V08-00-18/merged_ntuple_331.root
p426
aV/nfs-7/userdata/dataTuple/kludge/Run2016F_JetHT_MINIAOD_03Feb2017-v1/merged/V08-00-18/merged_ntuple_332.root
p427
aV/nfs-7/userdata/dataTuple/kludge/Run2016F_JetHT_MINIAOD_03Feb2017-v1/merged/V08-00-18/merged_ntuple_333.root
p428
aV/nfs-7/userdata/dataTuple/kludge/Run2016F_JetHT_MINIAOD_03Feb2017-v1/merged/V08-00-18/merged_ntuple_334.root
p429
aV/nfs-7/userdata/dataTuple/kludge/Run2016F_JetHT_MINIAOD_03Feb2017-v1/merged/V08-00-18/merged_ntuple_335.root
p430
aV/nfs-7/userdata/dataTuple/kludge/Run2016F_JetHT_MINIAOD_03Feb2017-v1/merged/V08-00-18/merged_ntuple_336.root
p431
aV/nfs-7/userdata/dataTuple/kludge/Run2016F_JetHT_MINIAOD_03Feb2017-v1/merged/V08-00-18/merged_ntuple_337.root
p432
aV/nfs-7/userdata/dataTuple/kludge/Run2016F_JetHT_MINIAOD_03Feb2017-v1/merged/V08-00-18/merged_ntuple_338.root
p433
aV/nfs-7/userdata/dataTuple/kludge/Run2016F_JetHT_MINIAOD_03Feb2017-v1/merged/V08-00-18/merged_ntuple_339.root
p434
aV/nfs-7/userdata/dataTuple/kludge/Run2016F_JetHT_MINIAOD_03Feb2017-v1/merged/V08-00-18/merged_ntuple_340.root
p435
aV/nfs-7/userdata/dataTuple/kludge/Run2016F_JetHT_MINIAOD_03Feb2017-v1/merged/V08-00-18/merged_ntuple_341.root
p436
aV/nfs-7/userdata/dataTuple/kludge/Run2016F_JetHT_MINIAOD_03Feb2017-v1/merged/V08-00-18/merged_ntuple_342.root
p437
aV/nfs-7/userdata/dataTuple/kludge/Run2016F_JetHT_MINIAOD_03Feb2017-v1/merged/V08-00-18/merged_ntuple_343.root
p438
aV/nfs-7/userdata/dataTuple/kludge/Run2016F_JetHT_MINIAOD_03Feb2017-v1/merged/V08-00-18/merged_ntuple_344.root
p439
aV/nfs-7/userdata/dataTuple/kludge/Run2016F_JetHT_MINIAOD_03Feb2017-v1/merged/V08-00-18/merged_ntuple_345.root
p440
aV/nfs-7/userdata/dataTuple/kludge/Run2016F_JetHT_MINIAOD_03Feb2017-v1/merged/V08-00-18/merged_ntuple_346.root
p441
aV/nfs-7/userdata/dataTuple/kludge/Run2016F_JetHT_MINIAOD_03Feb2017-v1/merged/V08-00-18/merged_ntuple_347.root
p442
aV/nfs-7/userdata/dataTuple/kludge/Run2016F_JetHT_MINIAOD_03Feb2017-v1/merged/V08-00-18/merged_ntuple_348.root
p443
aV/nfs-7/userdata/dataTuple/kludge/Run2016F_JetHT_MINIAOD_03Feb2017-v1/merged/V08-00-18/merged_ntuple_349.root
p444
aV/nfs-7/userdata/dataTuple/kludge/Run2016F_JetHT_MINIAOD_03Feb2017-v1/merged/V08-00-18/merged_ntuple_350.root
p445
aV/nfs-7/userdata/dataTuple/kludge/Run2016F_JetHT_MINIAOD_03Feb2017-v1/merged/V08-00-18/merged_ntuple_351.root
p446
aV/nfs-7/userdata/dataTuple/kludge/Run2016F_JetHT_MINIAOD_03Feb2017-v1/merged/V08-00-18/merged_ntuple_352.root
p447
aV/nfs-7/userdata/dataTuple/kludge/Run2016F_JetHT_MINIAOD_03Feb2017-v1/merged/V08-00-18/merged_ntuple_353.root
p448
aV/nfs-7/userdata/dataTuple/kludge/Run2016F_JetHT_MINIAOD_03Feb2017-v1/merged/V08-00-18/merged_ntuple_354.root
p449
aV/nfs-7/userdata/dataTuple/kludge/Run2016F_JetHT_MINIAOD_03Feb2017-v1/merged/V08-00-18/merged_ntuple_355.root
p450
aV/nfs-7/userdata/dataTuple/kludge/Run2016F_JetHT_MINIAOD_03Feb2017-v1/merged/V08-00-18/merged_ntuple_356.root
p451
aV/nfs-7/userdata/dataTuple/kludge/Run2016F_JetHT_MINIAOD_03Feb2017-v1/merged/V08-00-18/merged_ntuple_357.root
p452
aV/nfs-7/userdata/dataTuple/kludge/Run2016F_JetHT_MINIAOD_03Feb2017-v1/merged/V08-00-18/merged_ntuple_358.root
p453
aV/nfs-7/userdata/dataTuple/kludge/Run2016F_JetHT_MINIAOD_03Feb2017-v1/merged/V08-00-18/merged_ntuple_359.root
p454
aV/nfs-7/userdata/dataTuple/kludge/Run2016F_JetHT_MINIAOD_03Feb2017-v1/merged/V08-00-18/merged_ntuple_360.root
p455
aV/nfs-7/userdata/dataTuple/kludge/Run2016F_JetHT_MINIAOD_03Feb2017-v1/merged/V08-00-18/merged_ntuple_361.root
p456
aV/nfs-7/userdata/dataTuple/kludge/Run2016F_JetHT_MINIAOD_03Feb2017-v1/merged/V08-00-18/merged_ntuple_362.root
p457
aV/nfs-7/userdata/dataTuple/kludge/Run2016F_JetHT_MINIAOD_03Feb2017-v1/merged/V08-00-18/merged_ntuple_363.root
p458
aV/nfs-7/userdata/dataTuple/kludge/Run2016F_JetHT_MINIAOD_03Feb2017-v1/merged/V08-00-18/merged_ntuple_364.root
p459
aV/nfs-7/userdata/dataTuple/kludge/Run2016F_JetHT_MINIAOD_03Feb2017-v1/merged/V08-00-18/merged_ntuple_365.root
p460
aV/nfs-7/userdata/dataTuple/kludge/Run2016F_JetHT_MINIAOD_03Feb2017-v1/merged/V08-00-18/merged_ntuple_366.root
p461
aV/nfs-7/userdata/dataTuple/kludge/Run2016F_JetHT_MINIAOD_03Feb2017-v1/merged/V08-00-18/merged_ntuple_367.root
p462
aV/nfs-7/userdata/dataTuple/kludge/Run2016F_JetHT_MINIAOD_03Feb2017-v1/merged/V08-00-18/merged_ntuple_368.root
p463
aV/nfs-7/userdata/dataTuple/kludge/Run2016F_JetHT_MINIAOD_03Feb2017-v1/merged/V08-00-18/merged_ntuple_369.root
p464
aV/nfs-7/userdata/dataTuple/kludge/Run2016F_JetHT_MINIAOD_03Feb2017-v1/merged/V08-00-18/merged_ntuple_370.root
p465
aV/nfs-7/userdata/dataTuple/kludge/Run2016F_JetHT_MINIAOD_03Feb2017-v1/merged/V08-00-18/merged_ntuple_371.root
p466
aV/nfs-7/userdata/dataTuple/kludge/Run2016F_JetHT_MINIAOD_03Feb2017-v1/merged/V08-00-18/merged_ntuple_372.root
p467
aV/nfs-7/userdata/dataTuple/kludge/Run2016F_JetHT_MINIAOD_03Feb2017-v1/merged/V08-00-18/merged_ntuple_373.root
p468
aV/nfs-7/userdata/dataTuple/kludge/Run2016F_JetHT_MINIAOD_03Feb2017-v1/merged/V08-00-18/merged_ntuple_374.root
p469
aV/nfs-7/userdata/dataTuple/kludge/Run2016F_JetHT_MINIAOD_03Feb2017-v1/merged/V08-00-18/merged_ntuple_375.root
p470
aV/nfs-7/userdata/dataTuple/kludge/Run2016F_JetHT_MINIAOD_03Feb2017-v1/merged/V08-00-18/merged_ntuple_376.root
p471
aV/nfs-7/userdata/dataTuple/kludge/Run2016F_JetHT_MINIAOD_03Feb2017-v1/merged/V08-00-18/merged_ntuple_377.root
p472
aV/nfs-7/userdata/dataTuple/kludge/Run2016F_JetHT_MINIAOD_03Feb2017-v1/merged/V08-00-18/merged_ntuple_378.root
p473
aV/nfs-7/userdata/dataTuple/kludge/Run2016F_JetHT_MINIAOD_03Feb2017-v1/merged/V08-00-18/merged_ntuple_379.root
p474
aV/nfs-7/userdata/dataTuple/kludge/Run2016F_JetHT_MINIAOD_03Feb2017-v1/merged/V08-00-18/merged_ntuple_380.root
p475
aV/nfs-7/userdata/dataTuple/kludge/Run2016F_JetHT_MINIAOD_03Feb2017-v1/merged/V08-00-18/merged_ntuple_381.root
p476
aV/nfs-7/userdata/dataTuple/kludge/Run2016F_JetHT_MINIAOD_03Feb2017-v1/merged/V08-00-18/merged_ntuple_382.root
p477
aV/nfs-7/userdata/dataTuple/kludge/Run2016F_JetHT_MINIAOD_03Feb2017-v1/merged/V08-00-18/merged_ntuple_383.root
p478
aV/nfs-7/userdata/dataTuple/kludge/Run2016F_JetHT_MINIAOD_03Feb2017-v1/merged/V08-00-18/merged_ntuple_384.root
p479
aV/nfs-7/userdata/dataTuple/kludge/Run2016F_JetHT_MINIAOD_03Feb2017-v1/merged/V08-00-18/merged_ntuple_385.root
p480
aV/nfs-7/userdata/dataTuple/kludge/Run2016F_JetHT_MINIAOD_03Feb2017-v1/merged/V08-00-18/merged_ntuple_386.root
p481
aV/nfs-7/userdata/dataTuple/kludge/Run2016F_JetHT_MINIAOD_03Feb2017-v1/merged/V08-00-18/merged_ntuple_387.root
p482
aV/nfs-7/userdata/dataTuple/kludge/Run2016F_JetHT_MINIAOD_03Feb2017-v1/merged/V08-00-18/merged_ntuple_388.root
p483
aV/nfs-7/userdata/dataTuple/kludge/Run2016F_JetHT_MINIAOD_03Feb2017-v1/merged/V08-00-18/merged_ntuple_389.root
p484
aV/nfs-7/userdata/dataTuple/kludge/Run2016F_JetHT_MINIAOD_03Feb2017-v1/merged/V08-00-18/merged_ntuple_390.root
p485
aV/nfs-7/userdata/dataTuple/kludge/Run2016F_JetHT_MINIAOD_03Feb2017-v1/merged/V08-00-18/merged_ntuple_391.root
p486
aV/nfs-7/userdata/dataTuple/kludge/Run2016F_JetHT_MINIAOD_03Feb2017-v1/merged/V08-00-18/merged_ntuple_392.root
p487
aV/nfs-7/userdata/dataTuple/kludge/Run2016F_JetHT_MINIAOD_03Feb2017-v1/merged/V08-00-18/merged_ntuple_393.root
p488
aV/nfs-7/userdata/dataTuple/kludge/Run2016F_JetHT_MINIAOD_03Feb2017-v1/merged/V08-00-18/merged_ntuple_394.root
p489
aV/nfs-7/userdata/dataTuple/kludge/Run2016F_JetHT_MINIAOD_03Feb2017-v1/merged/V08-00-18/merged_ntuple_395.root
p490
aV/nfs-7/userdata/dataTuple/kludge/Run2016F_JetHT_MINIAOD_03Feb2017-v1/merged/V08-00-18/merged_ntuple_396.root
p491
aV/nfs-7/userdata/dataTuple/kludge/Run2016F_JetHT_MINIAOD_03Feb2017-v1/merged/V08-00-18/merged_ntuple_397.root
p492
aV/nfs-7/userdata/dataTuple/kludge/Run2016F_JetHT_MINIAOD_03Feb2017-v1/merged/V08-00-18/merged_ntuple_398.root
p493
aV/nfs-7/userdata/dataTuple/kludge/Run2016F_JetHT_MINIAOD_03Feb2017-v1/merged/V08-00-18/merged_ntuple_399.root
p494
aV/nfs-7/userdata/dataTuple/kludge/Run2016F_JetHT_MINIAOD_03Feb2017-v1/merged/V08-00-18/merged_ntuple_400.root
p495
aV/nfs-7/userdata/dataTuple/kludge/Run2016F_JetHT_MINIAOD_03Feb2017-v1/merged/V08-00-18/merged_ntuple_401.root
p496
aV/nfs-7/userdata/dataTuple/kludge/Run2016F_JetHT_MINIAOD_03Feb2017-v1/merged/V08-00-18/merged_ntuple_402.root
p497
aV/nfs-7/userdata/dataTuple/kludge/Run2016F_JetHT_MINIAOD_03Feb2017-v1/merged/V08-00-18/merged_ntuple_403.root
p498
aV/nfs-7/userdata/dataTuple/kludge/Run2016F_JetHT_MINIAOD_03Feb2017-v1/merged/V08-00-18/merged_ntuple_404.root
p499
aV/nfs-7/userdata/dataTuple/kludge/Run2016F_JetHT_MINIAOD_03Feb2017-v1/merged/V08-00-18/merged_ntuple_405.root
p500
aV/nfs-7/userdata/dataTuple/kludge/Run2016F_JetHT_MINIAOD_03Feb2017-v1/merged/V08-00-18/merged_ntuple_406.root
p501
aV/nfs-7/userdata/dataTuple/kludge/Run2016F_JetHT_MINIAOD_03Feb2017-v1/merged/V08-00-18/merged_ntuple_407.root
p502
aV/nfs-7/userdata/dataTuple/kludge/Run2016F_JetHT_MINIAOD_03Feb2017-v1/merged/V08-00-18/merged_ntuple_408.root
p503
aV/nfs-7/userdata/dataTuple/kludge/Run2016F_JetHT_MINIAOD_03Feb2017-v1/merged/V08-00-18/merged_ntuple_409.root
p504
aV/nfs-7/userdata/dataTuple/kludge/Run2016F_JetHT_MINIAOD_03Feb2017-v1/merged/V08-00-18/merged_ntuple_410.root
p505
aV/nfs-7/userdata/dataTuple/kludge/Run2016F_JetHT_MINIAOD_03Feb2017-v1/merged/V08-00-18/merged_ntuple_411.root
p506
aV/nfs-7/userdata/dataTuple/kludge/Run2016F_JetHT_MINIAOD_03Feb2017-v1/merged/V08-00-18/merged_ntuple_412.root
p507
aV/nfs-7/userdata/dataTuple/kludge/Run2016F_JetHT_MINIAOD_03Feb2017-v1/merged/V08-00-18/merged_ntuple_413.root
p508
aV/nfs-7/userdata/dataTuple/kludge/Run2016F_JetHT_MINIAOD_03Feb2017-v1/merged/V08-00-18/merged_ntuple_414.root
p509
aV/nfs-7/userdata/dataTuple/kludge/Run2016F_JetHT_MINIAOD_03Feb2017-v1/merged/V08-00-18/merged_ntuple_415.root
p510
aV/nfs-7/userdata/dataTuple/kludge/Run2016F_JetHT_MINIAOD_03Feb2017-v1/merged/V08-00-18/merged_ntuple_416.root
p511
aV/nfs-7/userdata/dataTuple/kludge/Run2016F_JetHT_MINIAOD_03Feb2017-v1/merged/V08-00-18/merged_ntuple_417.root
p512
aV/nfs-7/userdata/dataTuple/kludge/Run2016F_JetHT_MINIAOD_03Feb2017-v1/merged/V08-00-18/merged_ntuple_418.root
p513
aV/nfs-7/userdata/dataTuple/kludge/Run2016F_JetHT_MINIAOD_03Feb2017-v1/merged/V08-00-18/merged_ntuple_419.root
p514
aV/nfs-7/userdata/dataTuple/kludge/Run2016F_JetHT_MINIAOD_03Feb2017-v1/merged/V08-00-18/merged_ntuple_420.root
p515
aV/nfs-7/userdata/dataTuple/kludge/Run2016F_JetHT_MINIAOD_03Feb2017-v1/merged/V08-00-18/merged_ntuple_421.root
p516
aV/nfs-7/userdata/dataTuple/kludge/Run2016F_JetHT_MINIAOD_03Feb2017-v1/merged/V08-00-18/merged_ntuple_422.root
p517
aV/nfs-7/userdata/dataTuple/kludge/Run2016F_JetHT_MINIAOD_03Feb2017-v1/merged/V08-00-18/merged_ntuple_423.root
p518
aV/nfs-7/userdata/dataTuple/kludge/Run2016F_JetHT_MINIAOD_03Feb2017-v1/merged/V08-00-18/merged_ntuple_424.root
p519
aV/nfs-7/userdata/dataTuple/kludge/Run2016F_JetHT_MINIAOD_03Feb2017-v1/merged/V08-00-18/merged_ntuple_425.root
p520
aV/nfs-7/userdata/dataTuple/kludge/Run2016F_JetHT_MINIAOD_03Feb2017-v1/merged/V08-00-18/merged_ntuple_426.root
p521
aV/nfs-7/userdata/dataTuple/kludge/Run2016F_JetHT_MINIAOD_03Feb2017-v1/merged/V08-00-18/merged_ntuple_427.root
p522
aV/nfs-7/userdata/dataTuple/kludge/Run2016F_JetHT_MINIAOD_03Feb2017-v1/merged/V08-00-18/merged_ntuple_428.root
p523
aV/nfs-7/userdata/dataTuple/kludge/Run2016F_JetHT_MINIAOD_03Feb2017-v1/merged/V08-00-18/merged_ntuple_429.root
p524
aV/nfs-7/userdata/dataTuple/kludge/Run2016F_JetHT_MINIAOD_03Feb2017-v1/merged/V08-00-18/merged_ntuple_430.root
p525
aV/nfs-7/userdata/dataTuple/kludge/Run2016F_JetHT_MINIAOD_03Feb2017-v1/merged/V08-00-18/merged_ntuple_431.root
p526
aV/nfs-7/userdata/dataTuple/kludge/Run2016F_JetHT_MINIAOD_03Feb2017-v1/merged/V08-00-18/merged_ntuple_432.root
p527
aV/nfs-7/userdata/dataTuple/kludge/Run2016F_JetHT_MINIAOD_03Feb2017-v1/merged/V08-00-18/merged_ntuple_433.root
p528
aV/nfs-7/userdata/dataTuple/kludge/Run2016F_JetHT_MINIAOD_03Feb2017-v1/merged/V08-00-18/merged_ntuple_434.root
p529
aV/nfs-7/userdata/dataTuple/kludge/Run2016F_JetHT_MINIAOD_03Feb2017-v1/merged/V08-00-18/merged_ntuple_435.root
p530
aV/nfs-7/userdata/dataTuple/kludge/Run2016F_JetHT_MINIAOD_03Feb2017-v1/merged/V08-00-18/merged_ntuple_436.root
p531
aV/nfs-7/userdata/dataTuple/kludge/Run2016F_JetHT_MINIAOD_03Feb2017-v1/merged/V08-00-18/merged_ntuple_437.root
p532
aV/nfs-7/userdata/dataTuple/kludge/Run2016F_JetHT_MINIAOD_03Feb2017-v1/merged/V08-00-18/merged_ntuple_438.root
p533
aV/nfs-7/userdata/dataTuple/kludge/Run2016F_JetHT_MINIAOD_03Feb2017-v1/merged/V08-00-18/merged_ntuple_439.root
p534
aV/nfs-7/userdata/dataTuple/kludge/Run2016F_JetHT_MINIAOD_03Feb2017-v1/merged/V08-00-18/merged_ntuple_440.root
p535
aV/nfs-7/userdata/dataTuple/kludge/Run2016F_JetHT_MINIAOD_03Feb2017-v1/merged/V08-00-18/merged_ntuple_441.root
p536
aV/nfs-7/userdata/dataTuple/kludge/Run2016F_JetHT_MINIAOD_03Feb2017-v1/merged/V08-00-18/merged_ntuple_442.root
p537
aV/nfs-7/userdata/dataTuple/kludge/Run2016F_JetHT_MINIAOD_03Feb2017-v1/merged/V08-00-18/merged_ntuple_443.root
p538
aV/nfs-7/userdata/dataTuple/kludge/Run2016F_JetHT_MINIAOD_03Feb2017-v1/merged/V08-00-18/merged_ntuple_444.root
p539
aV/nfs-7/userdata/dataTuple/kludge/Run2016F_JetHT_MINIAOD_03Feb2017-v1/merged/V08-00-18/merged_ntuple_445.root
p540
aV/nfs-7/userdata/dataTuple/kludge/Run2016F_JetHT_MINIAOD_03Feb2017-v1/merged/V08-00-18/merged_ntuple_446.root
p541
aV/nfs-7/userdata/dataTuple/kludge/Run2016F_JetHT_MINIAOD_03Feb2017-v1/merged/V08-00-18/merged_ntuple_447.root
p542
aV/nfs-7/userdata/dataTuple/kludge/Run2016F_JetHT_MINIAOD_03Feb2017-v1/merged/V08-00-18/merged_ntuple_448.root
p543
aV/nfs-7/userdata/dataTuple/kludge/Run2016F_JetHT_MINIAOD_03Feb2017-v1/merged/V08-00-18/merged_ntuple_449.root
p544
aV/nfs-7/userdata/dataTuple/kludge/Run2016F_JetHT_MINIAOD_03Feb2017-v1/merged/V08-00-18/merged_ntuple_450.root
p545
aV/nfs-7/userdata/dataTuple/kludge/Run2016F_JetHT_MINIAOD_03Feb2017-v1/merged/V08-00-18/merged_ntuple_451.root
p546
aV/nfs-7/userdata/dataTuple/kludge/Run2016F_JetHT_MINIAOD_03Feb2017-v1/merged/V08-00-18/merged_ntuple_452.root
p547
aV/nfs-7/userdata/dataTuple/kludge/Run2016F_JetHT_MINIAOD_03Feb2017-v1/merged/V08-00-18/merged_ntuple_453.root
p548
aV/nfs-7/userdata/dataTuple/kludge/Run2016F_JetHT_MINIAOD_03Feb2017-v1/merged/V08-00-18/merged_ntuple_454.root
p549
aV/nfs-7/userdata/dataTuple/kludge/Run2016F_JetHT_MINIAOD_03Feb2017-v1/merged/V08-00-18/merged_ntuple_455.root
p550
aV/nfs-7/userdata/dataTuple/kludge/Run2016F_JetHT_MINIAOD_03Feb2017-v1/merged/V08-00-18/merged_ntuple_456.root
p551
aV/nfs-7/userdata/dataTuple/kludge/Run2016F_JetHT_MINIAOD_03Feb2017-v1/merged/V08-00-18/merged_ntuple_457.root
p552
aV/nfs-7/userdata/dataTuple/kludge/Run2016F_JetHT_MINIAOD_03Feb2017-v1/merged/V08-00-18/merged_ntuple_458.root
p553
aV/nfs-7/userdata/dataTuple/kludge/Run2016F_JetHT_MINIAOD_03Feb2017-v1/merged/V08-00-18/merged_ntuple_459.root
p554
aV/nfs-7/userdata/dataTuple/kludge/Run2016F_JetHT_MINIAOD_03Feb2017-v1/merged/V08-00-18/merged_ntuple_460.root
p555
aV/nfs-7/userdata/dataTuple/kludge/Run2016F_JetHT_MINIAOD_03Feb2017-v1/merged/V08-00-18/merged_ntuple_461.root
p556
aV/nfs-7/userdata/dataTuple/kludge/Run2016F_JetHT_MINIAOD_03Feb2017-v1/merged/V08-00-18/merged_ntuple_462.root
p557
aV/nfs-7/userdata/dataTuple/kludge/Run2016F_JetHT_MINIAOD_03Feb2017-v1/merged/V08-00-18/merged_ntuple_463.root
p558
aV/nfs-7/userdata/dataTuple/kludge/Run2016F_JetHT_MINIAOD_03Feb2017-v1/merged/V08-00-18/merged_ntuple_464.root
p559
aV/nfs-7/userdata/dataTuple/kludge/Run2016F_JetHT_MINIAOD_03Feb2017-v1/merged/V08-00-18/merged_ntuple_465.root
p560
aV/nfs-7/userdata/dataTuple/kludge/Run2016F_JetHT_MINIAOD_03Feb2017-v1/merged/V08-00-18/merged_ntuple_466.root
p561
aV/nfs-7/userdata/dataTuple/kludge/Run2016F_JetHT_MINIAOD_03Feb2017-v1/merged/V08-00-18/merged_ntuple_467.root
p562
aV/nfs-7/userdata/dataTuple/kludge/Run2016F_JetHT_MINIAOD_03Feb2017-v1/merged/V08-00-18/merged_ntuple_468.root
p563
aV/nfs-7/userdata/dataTuple/kludge/Run2016F_JetHT_MINIAOD_03Feb2017-v1/merged/V08-00-18/merged_ntuple_469.root
p564
aV/nfs-7/userdata/dataTuple/kludge/Run2016F_JetHT_MINIAOD_03Feb2017-v1/merged/V08-00-18/merged_ntuple_470.root
p565
aV/nfs-7/userdata/dataTuple/kludge/Run2016F_JetHT_MINIAOD_03Feb2017-v1/merged/V08-00-18/merged_ntuple_471.root
p566
aV/nfs-7/userdata/dataTuple/kludge/Run2016F_JetHT_MINIAOD_03Feb2017-v1/merged/V08-00-18/merged_ntuple_472.root
p567
aV/nfs-7/userdata/dataTuple/kludge/Run2016F_JetHT_MINIAOD_03Feb2017-v1/merged/V08-00-18/merged_ntuple_473.root
p568
aV/nfs-7/userdata/dataTuple/kludge/Run2016F_JetHT_MINIAOD_03Feb2017-v1/merged/V08-00-18/merged_ntuple_474.root
p569
aV/nfs-7/userdata/dataTuple/kludge/Run2016F_JetHT_MINIAOD_03Feb2017-v1/merged/V08-00-18/merged_ntuple_475.root
p570
asS'executable_script'
p571
S'/home/users/dpgilber/MT2AnalysisNebraskaCMS3/babymaker/batchsubmit//babies/baby_ducks.sh'
p572
ssS'nevents_unmerged'
p573
I0
sS'cmsswver'
p574
g83
sS'postprocessing'
p575
(dp576
sS'nevents_merged'
p577
I0
sS'nevents_DAS'
p578
I0
ssS'misc'
p579
(dp580
S'rootfiles'
p581
(lp582
sS'crab_config'
p583
NsS'last_saved'
p584
I1508244041
sS'handled_more_than_1k'
p585
I00
sS'can_skip_tail'
p586
I00
sS'email_when_done'
p587
I00
sS'update_dis_when_done'
p588
I01
sS'pfx_babies'
p589
S'babies'
p590
sS'logfiles'
p591
(lp592
sS'pfx_pset'
p593
S'pset'
p594
sS'pfx_crab'
p595
S'crab'
p596
ss.