(dp0
S'sample'
p1
(dp2
S'gtag'
p3
NsS'isdata'
p4
I00
sS'dataset'
p5
S'/SinglePhoton/Run2016H-03Feb2017_ver3-v1/CMS3'
p6
sS'pset'
p7
S''
p8
sS'finaldir'
p9
g8
sS'ijob_to_nevents'
p10
(dp11
sS'basedir'
p12
S'/home/users/dpgilber/MT2AnalysisNebraskaCMS3/babymaker/batchsubmit/'
p13
sS'kfact'
p14
NsS'imerged_to_ijob'
p15
(dp16
sS'crab'
p17
(dp18
S'resubmissions'
p19
I0
sS'datetime'
p20
NsS'jobs_left'
p21
(lp22
sS'requestname'
p23
S'SinglePhoton_Run2016H-03Feb2017_ver3-v1'
p24
sS'taskdir'
p25
S'babies/babies_SinglePhoton_Run2016H-03Feb2017_ver3-v1_2016_El50noID'
p26
sS'outputdir'
p27
NsS'jobs_left_tail'
p28
(lp29
ssS'shortname'
p30
g24
sS'xsec'
p31
NsS'type'
p32
S'BABY'
p33
sS'checks'
p34
(dp35
sS'sparms'
p36
(lp37
sS'status'
p38
S'condor'
p39
sS'ijob_to_miniaod'
p40
(dp41
sS'cms3tag'
p42
VCMS3_V08-00-18
p43
sS'specialdir'
p44
g8
sS'user'
p45
S'dpgilber'
p46
sS'efact'
p47
NsS'baby'
p48
(dp49
S'condor_done'
p50
I8
sS'outputdir_pattern'
p51
S'/hadoop/cms/store/user/dpgilber/AutoTwopler_babies/${ANALYSIS}_${BABY_TAG}/${SHORTNAME}/'
p52
sS'user_executable'
p53
S'/home/users/dpgilber/MT2AnalysisNebraskaCMS3/babymaker/batchsubmit/job_input/wrapper_auto.sh'
p54
sS'dataset'
p55
g6
sS'scramarch'
p56
S'slc6_amd64_gcc530'
p57
sS'sweepRoot_script'
p58
S'/home/users/dpgilber/MT2AnalysisNebraskaCMS3/babymaker/batchsubmit//babies/sweepRoot.sh'
p59
sS'total'
p60
I11
sS'finaldir'
p61
S'/hadoop/cms/store/user/dpgilber/AutoTwopler_babies/MT2_2016_El50noID/SinglePhoton_Run2016H-03Feb2017_ver3-v1/'
p62
sS'nevents'
p63
I-1
sS'output_names_nosplit'
p64
S'output.root,skim.root,skim_rphi.root'
p65
sS'imerged'
p66
(lp67
I1
aI2
aI3
aI4
aI5
aI6
aI7
aI8
aI9
aI10
aI11
asS'sweepRooted'
p68
I8
sS'exe_args'
p69
(lp70
g8
asS'user_package'
p71
S'/home/users/dpgilber/MT2AnalysisNebraskaCMS3/babymaker/batchsubmit/job_input/package.tar.gz'
p72
sS'exe_args_nosplit'
p73
g8
sS'running'
p74
I1
sS'output_names'
p75
(lp76
S'output.root'
p77
aS'skim.root'
p78
aS'skim_rphi.root'
p79
asS'package'
p80
S'/home/users/dpgilber/MT2AnalysisNebraskaCMS3/babymaker/batchsubmit//babies/package.tar.gz'
p81
sS'cmsswver'
p82
S'CMSSW_8_0_21'
p83
sS'have_set_inputs'
p84
I01
sS'analysis'
p85
S'MT2'
p86
sS'merging_script'
p87
S'/home/users/dpgilber/MT2AnalysisNebraskaCMS3/babymaker/batchsubmit//babies/merging_script.sh'
p88
sS'idle'
p89
I10
sS'baby_tag'
p90
S'2016_El50noID'
p91
sS'imerged_swept'
p92
(lp93
I8
aI3
aI4
aI1
aI11
aI7
aI6
aI10
asS'input_filenames'
p94
(lp95
V/nfs-7/userdata/dataTuple/kludge/Run2016H_SinglePhoton_MINIAOD_03Feb2017_ver3-v1/merged/V08-00-18/merged_ntuple_1.root
p96
aV/nfs-7/userdata/dataTuple/kludge/Run2016H_SinglePhoton_MINIAOD_03Feb2017_ver3-v1/merged/V08-00-18/merged_ntuple_2.root
p97
aV/nfs-7/userdata/dataTuple/kludge/Run2016H_SinglePhoton_MINIAOD_03Feb2017_ver3-v1/merged/V08-00-18/merged_ntuple_3.root
p98
aV/nfs-7/userdata/dataTuple/kludge/Run2016H_SinglePhoton_MINIAOD_03Feb2017_ver3-v1/merged/V08-00-18/merged_ntuple_4.root
p99
aV/nfs-7/userdata/dataTuple/kludge/Run2016H_SinglePhoton_MINIAOD_03Feb2017_ver3-v1/merged/V08-00-18/merged_ntuple_5.root
p100
aV/nfs-7/userdata/dataTuple/kludge/Run2016H_SinglePhoton_MINIAOD_03Feb2017_ver3-v1/merged/V08-00-18/merged_ntuple_6.root
p101
aV/nfs-7/userdata/dataTuple/kludge/Run2016H_SinglePhoton_MINIAOD_03Feb2017_ver3-v1/merged/V08-00-18/merged_ntuple_7.root
p102
aV/nfs-7/userdata/dataTuple/kludge/Run2016H_SinglePhoton_MINIAOD_03Feb2017_ver3-v1/merged/V08-00-18/merged_ntuple_8.root
p103
aV/nfs-7/userdata/dataTuple/kludge/Run2016H_SinglePhoton_MINIAOD_03Feb2017_ver3-v1/merged/V08-00-18/merged_ntuple_9.root
p104
aV/nfs-7/userdata/dataTuple/kludge/Run2016H_SinglePhoton_MINIAOD_03Feb2017_ver3-v1/merged/V08-00-18/merged_ntuple_10.root
p105
aV/nfs-7/userdata/dataTuple/kludge/Run2016H_SinglePhoton_MINIAOD_03Feb2017_ver3-v1/merged/V08-00-18/merged_ntuple_11.root
p106
asS'executable_script'
p107
S'/home/users/dpgilber/MT2AnalysisNebraskaCMS3/babymaker/batchsubmit//babies/baby_ducks.sh'
p108
ssS'nevents_unmerged'
p109
I0
sS'cmsswver'
p110
g83
sS'postprocessing'
p111
(dp112
sS'nevents_merged'
p113
I0
sS'nevents_DAS'
p114
I0
ssS'misc'
p115
(dp116
S'rootfiles'
p117
(lp118
sS'crab_config'
p119
NsS'last_saved'
p120
I1508244064
sS'handled_more_than_1k'
p121
I00
sS'can_skip_tail'
p122
I00
sS'email_when_done'
p123
I00
sS'update_dis_when_done'
p124
I01
sS'pfx_babies'
p125
S'babies'
p126
sS'logfiles'
p127
(lp128
sS'pfx_pset'
p129
S'pset'
p130
sS'pfx_crab'
p131
S'crab'
p132
ss.